(dp0
S'toimpute'
p1
I01
sS'data_for_tables2a'
p2
(dp3
S'missingentriestablesdata_madeby_rauvfmlbiaroc'
p4
(dp5
S'tableswith 2 missingentries'
p6
(dp7
S'onennimputationuniform_imputedtables'
p8
(dp9
S'tables'
p10
(lp11
(lp12
(lp13
VTable S2a: Cell identifiers for CCT A
p14
aI1721
aI352
aVD4S3042
p15
aI2868
aI8709
aVCSF
p16
aI3866
aVD16S539
p17
aI9607
aVD5S2084
p18
aVD12S86
p19
aI7959
aI9847
aI3326
aI707
aI6458
aI104439
aI6005
aVAC49
p20
aVdxs556
p21
aI5106
aI8392
aI8333
aI7381
aI5994
aVTP53
p22
aI6424
aI7509
aVAAG44
p23
aI6248
aI104334
aa(lp24
VRoot
p25
aI0
aI0
aI0
aI0
aI0
aI0
aI0
aI0
aI0
aI0
aI0
aI0
aI0
aI0
aI0
aI0
aI0
aI0
aI0
aI0
aI0
aI0
aI0
aI0
aI0
aI0
aI0
aI0
aI0
aI0
aI0
aa(lp26
VA1a1
p27
aI1
aI0
aI0
aI-1
aI-2
aI0
aI-1
aI0
aI0
aI-2
aI-4
aI-1
aI2
aI0
aI-1
aI0
aI0
aI0
aI-1
aI-1
aI-2
aI0
aI1
aI1
aI1
aI0
aI2
aI0
aI0
aI-2
aI0
aa(lp28
VA1a2
p29
aI1
aI-2
aI0
aI-1
aI-3
aI0
aI-1
aI0
aI0
aI-2
aI-4
aI-2
aI3
aI-1
aI0
aI0
aI0
aI0
aI-1
aI-1
aI-2
aI0
aI1
aI0
aI0
aI0
aI2
aI0
aI0
aI-2
aI0
aa(lp30
VA1b1
p31
aI1
aI0
aI1
aI-2
aI-2
aI0
aI-1
aI0
aI0
aI-2
aI-2
aI-1
aI-1
aI2
aI-1
aI0
aI1
aI0
aI-1
aI-1
aI-2
aI0
aI0
aI1
aI1
aI-1
aI1
aI0
aI-1
aI-1
aI0
aa(lp32
VA1b2
p33
aI1
aI-1
aI1
aI-1
aI-3
aI0
aI-1
aI0
aI0
aI-2
aI-2
aI0
aI-1
aI2
aI-1
aI0
aI1
aI0
aI-1
aI-1
aI-2
aI0
aI0
aI0
aI1
aI-1
aI2
aI0
aI-1
aI-1
aI-1
aa(lp34
VA2a1
p35
aI-1
aI2
aI0
aI-4
aI0
aI-1
aI0
aI1
aI0
aI0
aI1
aI-2
aI-2
aI1
aI-2
aI0
aI-1
aI-1
aI2
aI0
aI1
aI0
aI0
aI0
aI-1
aI-2
aI0
aI2
aI1
aI0
aI-2
aa(lp36
VA2a2
p37
aI0
aI2
aI0
aI-3
aI1
aI-1
aI0
aI1
aI0
aI-1
aI2
aI0
aI-3
aI1
aI-2
aI0
aI0
aI0
aI2
aI0
aI-1
aI0
aI0
aI0
aI-1
aI-2
aI0
aI2
aI1
aI0
aI-2
aa(lp38
VA2b1
p39
aI0
aI0
aI0
aI-2
aI2
aI-1
aI0
aI1
aI0
aI0
aI2
aI1
aI-3
aI0
aI-2
aI0
aI-1
aI0
aI0
aI0
aI0
aI-1
aI0
aI0
aI-3
aI0
aI-2
aI-1
aI1
aI0
aI-4
aa(lp40
VA2b2
p41
aI0
aI-2
aI0
aI-2
aI2
aI-1
aI0
aI1
aI-1
aI0
aI2
aI-1
aI-1
aI0
aI-2
aI0
aI-1
aI0
aI1
aI-1
aI2
aI-1
aI0
aI-1
aI-1
aI-1
aI-1
aI-1
aI1
aI0
aI-4
aaa(lp42
(lp43
g14
aI1721
aI352
ag15
aI2868
aI8709
ag16
aI3866
ag17
aI9607
ag18
ag19
aI7959
aI9847
aI3326
aI707
aI6458
aI104439
aI6005
ag20
ag21
aI5106
aI8392
aI8333
aI7381
aI5994
ag22
aI6424
aI7509
ag23
aI6248
aI104334
aa(lp44
g25
aI0
aI0
aI0
aI0
aI0
aI0
aI0
aI0
aI0
aI0
aI0
aI0
aI0
aI0
aI0
aI0
aI0
aI0
aI0
aI0
aI0
aI0
aI0
aI0
aI0
aI0
aI0
aI0
aI0
aI0
aI0
aa(lp45
g27
aI1
aI0
aI0
aI-1
aI-2
aI0
aI-1
aI0
aI0
aI-2
aI-4
aI-1
aI2
aI0
aI-1
aI0
aI0
aI0
aI-1
aI-1
aI-2
aI0
aI1
aI1
aI1
aI0
aI2
aI0
aI0
aI-2
aI0
aa(lp46
g29
aI1
aI-2
aI0
aI-1
aI-3
aI0
aI-1
aI0
aI0
aI-2
aI-4
aI-2
aI3
aI-1
aI0
aI0
aI0
aI0
aI-1
aI-1
aI-2
aI0
aI1
aI0
aI0
aI0
aI2
aI0
aI0
aI-2
aI0
aa(lp47
g31
aI1
aI0
aI1
aI-2
aI-2
aI0
aI-1
aI0
aI0
aI-2
aI-2
aI-1
aI-1
aI2
aI-1
aI0
aI1
aI0
aI-1
aI-1
aI-2
aI0
aI0
aI1
aI1
aI-1
aI1
aI0
aI-1
aI-1
aI0
aa(lp48
g33
aI1
aI-1
aI1
aI-1
aI-3
aI0
aI-1
aI0
aI0
aI-2
aI-2
aI0
aI-1
aI2
aI-1
aI0
aI1
aI0
aI-1
aI-1
aI-2
aI0
aI0
aI0
aI1
aI-1
aI2
aI0
aI-1
aI-1
aI-1
aa(lp49
g35
aI-1
aI2
aI0
aI-4
aI0
aI-1
aI0
aI1
aI0
aI0
aI1
aI-2
aI-2
aI1
aI-2
aI0
aI-1
aI-1
aI2
aI0
aI1
aI0
aI0
aI0
aI-1
aI-2
aI0
aI2
aI1
aI0
aI-2
aa(lp50
g37
aI0
aI2
aI0
aI-3
aI1
aI-1
aI0
aI1
aI0
aI-1
aI2
aI0
aI-3
aI1
aI-2
aI0
aI0
aI0
aI2
aI0
aI-1
aI0
aI0
aI0
aI-1
aI-2
aI0
aI2
aI1
aI0
aI-2
aa(lp51
g39
aI0
aI0
aI0
aI-2
aI2
aI-1
aI0
aI1
aI0
aI0
aI2
aI1
aI-3
aI0
aI-2
aI0
aI-1
aI0
aI0
aI0
aI0
aI-1
aI0
aI0
aI-3
aI0
aI-2
aI-1
aI1
aI0
aI-4
aa(lp52
g41
aI0
aI-2
aI0
aI-2
aI2
aI-1
aI0
aI1
aI-1
aI0
aI2
aI-1
aI-1
aI0
aI-2
aI0
aI-1
aI0
aI1
aI-1
aI2
aI-1
aI0
aI-1
aI-1
aI-1
aI-1
aI-1
aI1
aI0
aI-4
aaassS'tables'
p53
(lp54
(lp55
(lp56
g14
aI1721
aI352
ag15
aI2868
aI8709
ag16
aI3866
ag17
aI9607
ag18
ag19
aI7959
aI9847
aI3326
aI707
aI6458
aI104439
aI6005
ag20
ag21
aI5106
aI8392
aI8333
aI7381
aI5994
ag22
aI6424
aI2068
aI7509
ag23
aI6248
aI104334
aa(lp57
g25
aI0
aI0
aI0
aI0
aI0
aI0
aI0
aI0
aI0
aI0
aI0
aI0
aI0
aI0
aI0
aI0
aI0
aI0
aI0
aI0
aI0
aI0
aI0
aI0
aI0
aI0
aI0
aI0
aI0
aI0
aI0
aI0
aa(lp58
g27
aI1
aI0
aI0
aI-1
aI-2
aI0
aI-1
aI0
aI0
aI-2
aI-4
aI-1
aI2
aI0
aI-1
aI0
aI0
aI0
aI-1
aI-1
aI-2
aI0
aI1
aI1
aI1
aI0
aI2
aI0
aI0
aI0
aI-2
aI0
aa(lp59
g29
aI1
aI-2
aI0
aI-1
aI-3
aI0
aI-1
aI0
aI0
aI-2
aI-4
aI-2
aI3
aI-1
aI0
aI0
aI0
aI0
aI-1
aI-1
aI-2
aI0
aI1
aI0
aI0
aI0
aI2
aI0
aI0
aI0
aI-2
aI0
aa(lp60
g31
aI1
aI0
aI1
aI-2
aI-2
aI0
aI-1
aI0
aI0
aI-2
aI-2
aI-1
aI-1
aI2
aI-1
aI0
aI1
aI0
aI-1
aI-1
aI-2
aI0
aI0
aI1
aI1
aI-1
aI1
aI0
aI0
aI-1
aI-1
aI0
aa(lp61
g33
aI1
aI-1
aI1
aI-1
aI-3
aI0
aI-1
aI0
aI0
aI-2
aI-2
aI0
aI-1
aI2
aI-1
aI0
aI1
aI0
aI-1
aI-1
aI-2
aI0
aI0
aI0
aI1
aI-1
aI2
aI0
aI0
aI-1
aI-1
aI-1
aa(lp62
g35
aI-1
aI2
aI0
aI-4
aI0
aI-1
aI0
aI1
aI0
aI0
aI1
aI-2
aI-2
aI1
aI-2
aI0
aI-1
aI-1
aI2
aI0
aI1
aI0
aI0
aI0
aI-1
aI-2
aI0
aI-1
aI2
aI1
aI0
aI-2
aa(lp63
g37
aI0
aI2
aI0
aI-3
aI1
aI-1
aI0
aI1
aI0
aI-1
aI2
aI0
aI-3
aI1
aI-2
aI0
aI0
aI0
aI2
aI0
aI-1
aI0
aS'X'
p64
aI0
aI-1
aI-2
aI0
ag64
aI2
aI1
aI0
aI-2
aa(lp65
g39
aI0
aI0
aI0
aI-2
aI2
aI-1
aI0
aI1
aI0
aI0
aI2
aI1
aI-3
aI0
aI-2
aI0
aI-1
aI0
aI0
aI0
aI0
aI-1
aI0
aI0
aI-3
aI0
aI-2
aI-1
aI-1
aI1
aI0
aI-4
aa(lp66
g41
aI0
aI-2
aI0
aI-2
aI2
aI-1
aI0
aI1
aI-1
aI0
aI2
aI-1
aI-1
aI0
aI-2
aI0
aI-1
aI0
aI1
aI-1
aI2
aI-1
aI0
aI-1
aI-1
aI-1
aI-1
aI-1
aI-1
aI1
aI0
aI-4
aaa(lp67
(lp68
g14
aI1721
aI352
ag15
aI2868
aI8709
ag16
aI3866
ag17
aI9607
ag18
ag19
aI7959
aI9847
aI3326
aI707
aI6458
aI104439
aI6005
ag20
ag21
aI5106
aI8392
aI8333
aI7381
aI5994
ag22
aI6424
aI7509
ag23
aI6248
aI104334
aa(lp69
g25
aI0
aI0
aI0
aI0
aI0
aI0
aI0
aI0
aI0
aI0
aI0
aI0
aI0
aI0
aI0
aI0
aI0
aI0
aI0
aI0
aI0
aI0
aI0
aI0
aI0
aI0
aI0
aI0
aI0
aI0
aI0
aa(lp70
g27
aI1
aI0
aI0
aI-1
aI-2
aI0
aI-1
aI0
aI0
aI-2
aI-4
aI-1
aI2
aI0
aI-1
aI0
aI0
aI0
aI-1
aI-1
aI-2
aI0
aI1
aI1
aI1
aI0
aI2
aI0
aI0
aI-2
aI0
aa(lp71
g29
aI1
aI-2
aI0
aI-1
aI-3
aI0
aI-1
aI0
aI0
aI-2
aI-4
aI-2
aI3
aI-1
aI0
aI0
aI0
aI0
aI-1
aI-1
aI-2
aI0
aI1
aI0
aI0
aI0
aI2
aI0
aI0
aI-2
aI0
aa(lp72
g31
aI1
aI0
aI1
aI-2
aI-2
aI0
aI-1
aI0
aI0
aI-2
aI-2
aI-1
aI-1
aI2
aI-1
aI0
aI1
aI0
aI-1
aI-1
aI-2
aI0
aI0
aI1
aI1
aI-1
aI1
aI0
aI-1
aI-1
aI0
aa(lp73
g33
ag64
aI-1
aI1
aI-1
aI-3
aI0
aI-1
aI0
aI0
aI-2
aI-2
aI0
aI-1
aI2
aI-1
aI0
aI1
aI0
aI-1
aI-1
aI-2
aI0
aI0
aI0
aI1
aI-1
aI2
aI0
aI-1
aI-1
aI-1
aa(lp74
g35
aI-1
ag64
aI0
aI-4
aI0
aI-1
aI0
aI1
aI0
aI0
aI1
aI-2
aI-2
aI1
aI-2
aI0
aI-1
aI-1
aI2
aI0
aI1
aI0
aI0
aI0
aI-1
aI-2
aI0
aI2
aI1
aI0
aI-2
aa(lp75
g37
aI0
aI2
aI0
aI-3
aI1
aI-1
aI0
aI1
aI0
aI-1
aI2
aI0
aI-3
aI1
aI-2
aI0
aI0
aI0
aI2
aI0
aI-1
aI0
aI0
aI0
aI-1
aI-2
aI0
aI2
aI1
aI0
aI-2
aa(lp76
g39
aI0
aI0
aI0
aI-2
aI2
aI-1
aI0
aI1
aI0
aI0
aI2
aI1
aI-3
aI0
aI-2
aI0
aI-1
aI0
aI0
aI0
aI0
aI-1
aI0
aI0
aI-3
aI0
aI-2
aI-1
aI1
aI0
aI-4
aa(lp77
g41
aI0
aI-2
aI0
aI-2
aI2
aI-1
aI0
aI1
aI-1
aI0
aI2
aI-1
aI-1
aI0
aI-2
aI0
aI-1
aI0
aI1
aI-1
aI2
aI-1
aI0
aI-1
aI-1
aI-1
aI-1
aI-1
aI1
aI0
aI-4
aaasS'linearregressionendswithcutoff_imputedtables'
p78
(dp79
g10
(lp80
(lp81
(lp82
g14
aI1721
aI352
ag15
aI2868
aI8709
ag16
aI3866
ag17
aI9607
ag18
ag19
aI7959
aI9847
aI3326
aI707
aI6458
aI104439
aI6005
ag20
ag21
aI5106
aI8392
aI8333
aI7381
aI5994
ag22
aI6424
aI2068
aI7509
ag23
aI6248
aI104334
aa(lp83
g25
aI0
aI0
aI0
aI0
aI0
aI0
aI0
aI0
aI0
aI0
aI0
aI0
aI0
aI0
aI0
aI0
aI0
aI0
aI0
aI0
aI0
aI0
aI0
aI0
aI0
aI0
aI0
aI0
aI0
aI0
aI0
aI0
aa(lp84
g27
aI1
aI0
aI0
aI-1
aI-2
aI0
aI-1
aI0
aI0
aI-2
aI-4
aI-1
aI2
aI0
aI-1
aI0
aI0
aI0
aI-1
aI-1
aI-2
aI0
aI1
aI1
aI1
aI0
aI2
aI0
aI0
aI0
aI-2
aI0
aa(lp85
g29
aI1
aI-2
aI0
aI-1
aI-3
aI0
aI-1
aI0
aI0
aI-2
aI-4
aI-2
aI3
aI-1
aI0
aI0
aI0
aI0
aI-1
aI-1
aI-2
aI0
aI1
aI0
aI0
aI0
aI2
aI0
aI0
aI0
aI-2
aI0
aa(lp86
g31
aI1
aI0
aI1
aI-2
aI-2
aI0
aI-1
aI0
aI0
aI-2
aI-2
aI-1
aI-1
aI2
aI-1
aI0
aI1
aI0
aI-1
aI-1
aI-2
aI0
aI0
aI1
aI1
aI-1
aI1
aI0
aI0
aI-1
aI-1
aI0
aa(lp87
g33
aI1
aI-1
aI1
aI-1
aI-3
aI0
aI-1
aI0
aI0
aI-2
aI-2
aI0
aI-1
aI2
aI-1
aI0
aI1
aI0
aI-1
aI-1
aI-2
aI0
aI0
aI0
aI1
aI-1
aI2
aI0
aI0
aI-1
aI-1
aI-1
aa(lp88
g35
aI-1
aI2
aI0
aI-4
aI0
aI-1
aI0
aI1
aI0
aI0
aI1
aI-2
aI-2
aI1
aI-2
aI0
aI-1
aI-1
aI2
aI0
aI1
aI0
aI0
aI0
aI-1
aI-2
aI0
aI-1
aI2
aI1
aI0
aI-2
aa(lp89
g37
aI0
aI2
aI0
aI-3
aI1
aI-1
aI0
aI1
aI0
aI-1
aI2
aI0
aI-3
aI1
aI-2
aI0
aI0
aI0
aI2
aI0
aI-1
aI0
aI0
aI0
aI-1
aI-2
aI0
aI0
aI2
aI1
aI0
aI-2
aa(lp90
g39
aI0
aI0
aI0
aI-2
aI2
aI-1
aI0
aI1
aI0
aI0
aI2
aI1
aI-3
aI0
aI-2
aI0
aI-1
aI0
aI0
aI0
aI0
aI-1
aI0
aI0
aI-3
aI0
aI-2
aI-1
aI-1
aI1
aI0
aI-4
aa(lp91
g41
aI0
aI-2
aI0
aI-2
aI2
aI-1
aI0
aI1
aI-1
aI0
aI2
aI-1
aI-1
aI0
aI-2
aI0
aI-1
aI0
aI1
aI-1
aI2
aI-1
aI0
aI-1
aI-1
aI-1
aI-1
aI-1
aI-1
aI1
aI0
aI-4
aaa(lp92
(lp93
g14
aI1721
aI352
ag15
aI2868
aI8709
ag16
aI3866
ag17
aI9607
ag18
ag19
aI7959
aI9847
aI3326
aI707
aI6458
aI104439
aI6005
ag20
ag21
aI5106
aI8392
aI8333
aI7381
aI5994
ag22
aI6424
aI7509
ag23
aI6248
aI104334
aa(lp94
g25
aI0
aI0
aI0
aI0
aI0
aI0
aI0
aI0
aI0
aI0
aI0
aI0
aI0
aI0
aI0
aI0
aI0
aI0
aI0
aI0
aI0
aI0
aI0
aI0
aI0
aI0
aI0
aI0
aI0
aI0
aI0
aa(lp95
g27
aI1
aI0
aI0
aI-1
aI-2
aI0
aI-1
aI0
aI0
aI-2
aI-4
aI-1
aI2
aI0
aI-1
aI0
aI0
aI0
aI-1
aI-1
aI-2
aI0
aI1
aI1
aI1
aI0
aI2
aI0
aI0
aI-2
aI0
aa(lp96
g29
aI1
aI-2
aI0
aI-1
aI-3
aI0
aI-1
aI0
aI0
aI-2
aI-4
aI-2
aI3
aI-1
aI0
aI0
aI0
aI0
aI-1
aI-1
aI-2
aI0
aI1
aI0
aI0
aI0
aI2
aI0
aI0
aI-2
aI0
aa(lp97
g31
aI1
aI0
aI1
aI-2
aI-2
aI0
aI-1
aI0
aI0
aI-2
aI-2
aI-1
aI-1
aI2
aI-1
aI0
aI1
aI0
aI-1
aI-1
aI-2
aI0
aI0
aI1
aI1
aI-1
aI1
aI0
aI-1
aI-1
aI0
aa(lp98
g33
aI0
aI-1
aI1
aI-1
aI-3
aI0
aI-1
aI0
aI0
aI-2
aI-2
aI0
aI-1
aI2
aI-1
aI0
aI1
aI0
aI-1
aI-1
aI-2
aI0
aI0
aI0
aI1
aI-1
aI2
aI0
aI-1
aI-1
aI-1
aa(lp99
g35
aI-1
aI0
aI0
aI-4
aI0
aI-1
aI0
aI1
aI0
aI0
aI1
aI-2
aI-2
aI1
aI-2
aI0
aI-1
aI-1
aI2
aI0
aI1
aI0
aI0
aI0
aI-1
aI-2
aI0
aI2
aI1
aI0
aI-2
aa(lp100
g37
aI0
aI2
aI0
aI-3
aI1
aI-1
aI0
aI1
aI0
aI-1
aI2
aI0
aI-3
aI1
aI-2
aI0
aI0
aI0
aI2
aI0
aI-1
aI0
aI0
aI0
aI-1
aI-2
aI0
aI2
aI1
aI0
aI-2
aa(lp101
g39
aI0
aI0
aI0
aI-2
aI2
aI-1
aI0
aI1
aI0
aI0
aI2
aI1
aI-3
aI0
aI-2
aI0
aI-1
aI0
aI0
aI0
aI0
aI-1
aI0
aI0
aI-3
aI0
aI-2
aI-1
aI1
aI0
aI-4
aa(lp102
g41
aI0
aI-2
aI0
aI-2
aI2
aI-1
aI0
aI1
aI-1
aI0
aI2
aI-1
aI-1
aI0
aI-2
aI0
aI-1
aI0
aI1
aI-1
aI2
aI-1
aI0
aI-1
aI-1
aI-1
aI-1
aI-1
aI1
aI0
aI-4
aaassS'Fitchforimputation_imputedtables'
p103
(dp104
g10
(lp105
(lp106
(lp107
g14
aI1721
aI352
ag15
aI2868
aI8709
ag16
aI3866
ag17
aI9607
ag18
ag19
aI7959
aI9847
aI3326
aI707
aI6458
aI104439
aI6005
ag20
ag21
aI5106
aI8392
aI8333
aI7381
aI5994
ag22
aI6424
aI7509
ag23
aI6248
aI104334
aa(lp108
g25
aI0
aI0
aI0
aI0
aI0
aI0
aI0
aI0
aI0
aI0
aI0
aI0
aI0
aI0
aI0
aI0
aI0
aI0
aI0
aI0
aI0
aI0
aI0
aI0
aI0
aI0
aI0
aI0
aI0
aI0
aI0
aa(lp109
g27
aI1
aI0
aI0
aI-1
aI-2
aI0
aI-1
aI0
aI0
aI-2
aI-4
aI-1
aI2
aI0
aI-1
aI0
aI0
aI0
aI-1
aI-1
aI-2
aI0
aI1
aI1
aI1
aI0
aI2
aI0
aI0
aI-2
aI0
aa(lp110
g29
aI1
aI-2
aI0
aI-1
aI-3
aI0
aI-1
aI0
aI0
aI-2
aI-4
aI-2
aI3
aI-1
aI0
aI0
aI0
aI0
aI-1
aI-1
aI-2
aI0
aI1
aI0
aI0
aI0
aI2
aI0
aI0
aI-2
aI0
aa(lp111
g31
aI1
aI0
aI1
aI-2
aI-2
aI0
aI-1
aI0
aI0
aI-2
aI-2
aI-1
aI-1
aI2
aI-1
aI0
aI1
aI0
aI-1
aI-1
aI-2
aI0
aI0
aI1
aI1
aI-1
aI1
aI0
aI-1
aI-1
aI0
aa(lp112
g33
aI1
aI-1
aI1
aI-1
aI-3
aI0
aI-1
aI0
aI0
aI-2
aI-2
aI0
aI-1
aI2
aI-1
aI0
aI1
aI0
aI-1
aI-1
aI-2
aI0
aI0
aI0
aI1
aI-1
aI2
aI0
aI-1
aI-1
aI-1
aa(lp113
g35
aI-1
aI2
aI0
aI-4
aI0
aI-1
aI0
aI1
aI0
aI0
aI1
aI-2
aI-2
aI1
aI-2
aI0
aI-1
aI-1
aI2
aI0
aI1
aI0
aI0
aI0
aI-1
aI-2
aI0
aI2
aI1
aI0
aI-2
aa(lp114
g37
aI0
aI2
aI0
aI-3
aI1
aI-1
aI0
aI1
aI0
aI-1
aI2
aI0
aI-3
aI1
aI-2
aI0
aI0
aI0
aI2
aI0
aI-1
aI0
aI0
aI0
aI-1
aI-2
aI0
aI2
aI1
aI0
aI-2
aa(lp115
g39
aI0
aI0
aI0
aI-2
aI2
aI-1
aI0
aI1
aI0
aI0
aI2
aI1
aI-3
aI0
aI-2
aI0
aI-1
aI0
aI0
aI0
aI0
aI-1
aI0
aI0
aI-3
aI0
aI-2
aI-1
aI1
aI0
aI-4
aa(lp116
g41
aI0
aI-2
aI0
aI-2
aI2
aI-1
aI0
aI1
aI-1
aI0
aI2
aI-1
aI-1
aI0
aI-2
aI0
aI-1
aI0
aI1
aI-1
aI2
aI-1
aI0
aI-1
aI-1
aI-1
aI-1
aI-1
aI1
aI0
aI-4
aaa(lp117
(lp118
g14
aI1721
aI352
ag15
aI2868
aI8709
ag16
aI3866
ag17
aI9607
ag18
ag19
aI7959
aI9847
aI3326
aI707
aI6458
aI104439
aI6005
ag20
ag21
aI5106
aI8392
aI8333
aI7381
aI5994
ag22
aI6424
aI7509
ag23
aI6248
aI104334
aa(lp119
g25
aI0
aI0
aI0
aI0
aI0
aI0
aI0
aI0
aI0
aI0
aI0
aI0
aI0
aI0
aI0
aI0
aI0
aI0
aI0
aI0
aI0
aI0
aI0
aI0
aI0
aI0
aI0
aI0
aI0
aI0
aI0
aa(lp120
g27
aI1
aI0
aI0
aI-1
aI-2
aI0
aI-1
aI0
aI0
aI-2
aI-4
aI-1
aI2
aI0
aI-1
aI0
aI0
aI0
aI-1
aI-1
aI-2
aI0
aI1
aI1
aI1
aI0
aI2
aI0
aI0
aI-2
aI0
aa(lp121
g29
aI1
aI-2
aI0
aI-1
aI-3
aI0
aI-1
aI0
aI0
aI-2
aI-4
aI-2
aI3
aI-1
aI0
aI0
aI0
aI0
aI-1
aI-1
aI-2
aI0
aI1
aI0
aI0
aI0
aI2
aI0
aI0
aI-2
aI0
aa(lp122
g31
aI1
aI0
aI1
aI-2
aI-2
aI0
aI-1
aI0
aI0
aI-2
aI-2
aI-1
aI-1
aI2
aI-1
aI0
aI1
aI0
aI-1
aI-1
aI-2
aI0
aI0
aI1
aI1
aI-1
aI1
aI0
aI-1
aI-1
aI0
aa(lp123
g33
aI1
aI-1
aI1
aI-1
aI-3
aI0
aI-1
aI0
aI0
aI-2
aI-2
aI0
aI-1
aI2
aI-1
aI0
aI1
aI0
aI-1
aI-1
aI-2
aI0
aI0
aI0
aI1
aI-1
aI2
aI0
aI-1
aI-1
aI-1
aa(lp124
g35
aI-1
aI2
aI0
aI-4
aI0
aI-1
aI0
aI1
aI0
aI0
aI1
aI-2
aI-2
aI1
aI-2
aI0
aI-1
aI-1
aI2
aI0
aI1
aI0
aI0
aI0
aI-1
aI-2
aI0
aI2
aI1
aI0
aI-2
aa(lp125
g37
aI0
aI2
aI0
aI-3
aI1
aI-1
aI0
aI1
aI0
aI-1
aI2
aI0
aI-3
aI1
aI-2
aI0
aI0
aI0
aI2
aI0
aI-1
aI0
aI0
aI0
aI-1
aI-2
aI0
aI2
aI1
aI0
aI-2
aa(lp126
g39
aI0
aI0
aI0
aI-2
aI2
aI-1
aI0
aI1
aI0
aI0
aI2
aI1
aI-3
aI0
aI-2
aI0
aI-1
aI0
aI0
aI0
aI0
aI-1
aI0
aI0
aI-3
aI0
aI-2
aI-1
aI1
aI0
aI-4
aa(lp127
g41
aI0
aI-2
aI0
aI-2
aI2
aI-1
aI0
aI1
aI-1
aI0
aI2
aI-1
aI-1
aI0
aI-2
aI0
aI-1
aI0
aI1
aI-1
aI2
aI-1
aI0
aI-1
aI-1
aI-1
aI-1
aI-1
aI1
aI0
aI-4
aaasssS'tableswith 1 missingentries'
p128
(dp129
S'onennimputationuniform_imputedtables'
p130
(dp131
g10
(lp132
(lp133
(lp134
g14
aI1721
aI352
ag15
aI2868
aI8709
ag16
aI3866
ag17
aI9607
ag18
ag19
aI7959
aI9847
aI3326
aI707
aI6458
aI104439
aI6005
ag20
ag21
aI5106
aI8392
aI8333
aI7381
aI5994
ag22
aI6424
aI7509
ag23
aI6248
aI104334
aa(lp135
g25
aI0
aI0
aI0
aI0
aI0
aI0
aI0
aI0
aI0
aI0
aI0
aI0
aI0
aI0
aI0
aI0
aI0
aI0
aI0
aI0
aI0
aI0
aI0
aI0
aI0
aI0
aI0
aI0
aI0
aI0
aI0
aa(lp136
g27
aI1
aI0
aI0
aI-1
aI-2
aI0
aI-1
aI0
aI0
aI-2
aI-4
aI-1
aI2
aI0
aI-1
aI0
aI0
aI0
aI-1
aI-1
aI-2
aI0
aI1
aI1
aI1
aI0
aI2
aI0
aI0
aI-2
aI0
aa(lp137
g29
aI1
aI-2
aI0
aI-1
aI-3
aI0
aI-1
aI0
aI0
aI-2
aI-4
aI-2
aI3
aI-1
aI0
aI0
aI0
aI0
aI-1
aI-1
aI-2
aI0
aI1
aI0
aI0
aI0
aI2
aI0
aI0
aI-2
aI0
aa(lp138
g31
aI1
aI0
aI1
aI-2
aI-2
aI0
aI-1
aI0
aI0
aI-2
aI-2
aI-1
aI-1
aI2
aI-1
aI0
aI1
aI0
aI-1
aI-1
aI-2
aI0
aI0
aI1
aI1
aI-1
aI1
aI0
aI-1
aI-1
aI0
aa(lp139
g33
aI1
aI-1
aI1
aI-1
aI-3
aI0
aI-1
aI0
aI0
aI-2
aI-2
aI0
aI-1
aI2
aI-1
aI0
aI1
aI0
aI-1
aI-1
aI-2
aI0
aI0
aI0
aI1
aI-1
aI2
aI0
aI-1
aI-1
aI-1
aa(lp140
g35
aI-1
aI2
aI0
aI-4
aI0
aI-1
aI0
aI1
aI0
aI0
aI1
aI-2
aI-2
aI1
aI-2
aI0
aI-1
aI-1
aI2
aI0
aI1
aI0
aI0
aI0
aI-1
aI-2
aI0
aI2
aI1
aI0
aI-2
aa(lp141
g37
aI0
aI2
aI0
aI-3
aI1
aI-1
aI0
aI1
aI0
aI-1
aI2
aI0
aI-3
aI1
aI-2
aI0
aI0
aI0
aI2
aI0
aI-1
aI0
aI0
aI0
aI-1
aI-2
aI0
aI2
aI1
aI0
aI-2
aa(lp142
g39
aI0
aI0
aI0
aI-2
aI2
aI-1
aI0
aI1
aI0
aI0
aI2
aI1
aI-3
aI0
aI-2
aI0
aI-1
aI0
aI0
aI0
aI0
aI-1
aI0
aI0
aI-3
aI0
aI-2
aI-1
aI1
aI0
aI-4
aa(lp143
g41
aI0
aI-2
aI0
aI-2
aI2
aI-1
aI0
aI1
aI-1
aI0
aI2
aI-1
aI-1
aI0
aI-2
aI0
aI-1
aI0
aI1
aI-1
aI2
aI-1
aI0
aI-1
aI-1
aI-1
aI-1
aI-1
aI1
aI0
aI-4
aaa(lp144
(lp145
g14
aI1721
aI352
ag15
aI2868
aI8709
ag16
aI3866
ag17
aI9607
ag18
ag19
aI7959
aI9847
aI3326
aI707
aI6458
aI104439
aI6005
ag20
ag21
aI5106
aI8392
aI8333
aI7381
aI5994
ag22
aI6424
aI7509
ag23
aI6248
aI104334
aa(lp146
g25
aI0
aI0
aI0
aI0
aI0
aI0
aI0
aI0
aI0
aI0
aI0
aI0
aI0
aI0
aI0
aI0
aI0
aI0
aI0
aI0
aI0
aI0
aI0
aI0
aI0
aI0
aI0
aI0
aI0
aI0
aI0
aa(lp147
g27
aI1
aI0
aI0
aI-1
aI-2
aI0
aI-1
aI0
aI0
aI-2
aI-4
aI-1
aI2
aI0
aI-1
aI0
aI0
aI0
aI-1
aI-1
aI-2
aI0
aI1
aI1
aI1
aI0
aI2
aI0
aI0
aI-2
aI0
aa(lp148
g29
aI1
aI-2
aI0
aI-1
aI-3
aI0
aI-1
aI0
aI0
aI-2
aI-4
aI-2
aI3
aI-1
aI0
aI0
aI0
aI0
aI-1
aI-1
aI-2
aI0
aI1
aI0
aI0
aI0
aI2
aI0
aI0
aI-2
aI0
aa(lp149
g31
aI1
aI0
aI1
aI-2
aI-2
aI0
aI-1
aI0
aI0
aI-2
aI-2
aI-1
aI-1
aI2
aI-1
aI0
aI1
aI0
aI-1
aI-1
aI-2
aI0
aI0
aI1
aI1
aI-1
aI1
aI0
aI-1
aI-1
aI0
aa(lp150
g33
aI1
aI-1
aI1
aI-1
aI-3
aI0
aI-1
aI0
aI0
aI-2
aI-2
aI0
aI-1
aI2
aI-1
aI0
aI1
aI0
aI-1
aI-1
aI-2
aI0
aI0
aI0
aI1
aI-1
aI2
aI0
aI-1
aI-1
aI-1
aa(lp151
g35
aI-1
aI2
aI0
aI-4
aI0
aI-1
aI0
aI1
aI0
aI0
aI1
aI-2
aI-2
aI1
aI-2
aI0
aI-1
aI-1
aI2
aI0
aI1
aI0
aI0
aI0
aI-1
aI-2
aI0
aI2
aI1
aI0
aI-2
aa(lp152
g37
aI0
aI2
aI0
aI-3
aI1
aI-1
aI0
aI1
aI0
aI-1
aI2
aI0
aI-3
aI1
aI-2
aI0
aI0
aI0
aI2
aI0
aI-1
aI0
aI0
aI0
aI-1
aI-2
aI0
aI2
aI1
aI0
aI-2
aa(lp153
g39
aI0
aI0
aI0
aI-2
aI2
aI-1
aI0
aI1
aI0
aI0
aI2
aI1
aI-3
aI0
aI-2
aI0
aI-1
aI0
aI0
aI0
aI0
aI-1
aI0
aI0
aI-3
aI0
aI-2
aI-1
aI1
aI0
aI-4
aa(lp154
g41
aI0
aI-2
aI0
aI-2
aI2
aI-1
aI0
aI1
aI-1
aI0
aI2
aI-1
aI-1
aI0
aI-2
aI0
aI-1
aI0
aI1
aI-1
aI2
aI-1
aI0
aI-1
aI-1
aI-1
aI-1
aI-1
aI1
aI0
aI-4
aaassg53
(lp155
(lp156
(lp157
g14
aI1721
aI352
ag15
aI2868
aI8709
ag16
aI3866
ag17
aI7514
aI9607
ag18
ag19
aI7959
aI9847
aI3326
aI707
aI6458
aI104439
aI6005
ag20
ag21
aI5106
aI8392
aI8333
aI7381
aI5994
ag22
aI6424
aI7509
ag23
aI6248
aI104334
aa(lp158
g25
aI0
aI0
aI0
aI0
aI0
aI0
aI0
aI0
aI0
aI0
aI0
aI0
aI0
aI0
aI0
aI0
aI0
aI0
aI0
aI0
aI0
aI0
aI0
aI0
aI0
aI0
aI0
aI0
aI0
aI0
aI0
aI0
aa(lp159
g27
aI1
aI0
aI0
aI-1
aI-2
aI0
aI-1
aI0
aI0
aI0
aI-2
aI-4
aI-1
aI2
aI0
aI-1
aI0
aI0
aI0
aI-1
aI-1
aI-2
aI0
aI1
aI1
aI1
aI0
aI2
aI0
aI0
aI-2
aI0
aa(lp160
g29
aI1
aI-2
aI0
aI-1
aI-3
aI0
aI-1
aI0
aI0
aI0
aI-2
aI-4
aI-2
aI3
aI-1
aI0
aI0
aI0
aI0
aI-1
aI-1
aI-2
aI0
aI1
aI0
aI0
aI0
aI2
aI0
aI0
aI-2
aI0
aa(lp161
g31
aI1
aI0
aI1
aI-2
aI-2
aI0
aI-1
aI0
aI0
aI0
aI-2
aI-2
aI-1
aI-1
aI2
aI-1
aI0
aI1
aI0
aI-1
aI-1
aI-2
aI0
aI0
aI1
aI1
aI-1
aI1
aI0
aI-1
aI-1
aI0
aa(lp162
g33
aI1
aI-1
aI1
aI-1
aI-3
aI0
aI-1
aI0
aI0
aI0
aI-2
aI-2
aI0
aI-1
aI2
aI-1
aI0
aI1
aI0
aI-1
aI-1
aI-2
aI0
aI0
aI0
aI1
aI-1
aI2
aI0
aI-1
aI-1
aI-1
aa(lp163
g35
aI-1
aI2
aI0
aI-4
aI0
aI-1
aI0
aI1
aI-1
aI0
aI0
aI1
aI-2
aI-2
aI1
aI-2
aI0
aI-1
aI-1
aI2
aI0
aI1
aI0
aI0
aI0
aI-1
aI-2
aI0
aI2
aI1
aI0
aI-2
aa(lp164
g37
aI0
aI2
aI0
aI-3
aI1
aI-1
aI0
aI1
aI-1
aI0
aI-1
aI2
aI0
aI-3
aI1
aI-2
aI0
aI0
aI0
aI2
aI0
aI-1
aI0
aI0
aI0
aI-1
aI-2
aI0
aI2
aI1
aI0
aI-2
aa(lp165
g39
aI0
aI0
aI0
aI-2
aI2
ag64
aI0
aI1
aI-1
aI0
aI0
aI2
aI1
aI-3
aI0
aI-2
aI0
aI-1
aI0
aI0
aI0
aI0
aI-1
aI0
aI0
aI-3
aI0
aI-2
aI-1
aI1
aI0
aI-4
aa(lp166
g41
aI0
aI-2
aI0
aI-2
aI2
aI-1
aI0
aI1
aI-1
aI-1
aI0
aI2
aI-1
aI-1
aI0
aI-2
aI0
aI-1
aI0
aI1
aI-1
aI2
aI-1
aI0
aI-1
aI-1
aI-1
aI-1
aI-1
aI1
aI0
aI-4
aaa(lp167
(lp168
g14
aI1721
aI352
ag15
aI2868
aI8709
ag16
aI3866
ag17
aI9607
ag18
ag19
aI7959
aI9847
aI3326
aI707
aI6458
aI104439
aI6005
ag20
ag21
aI5284
aI5106
aI8392
aI8333
aI7381
aI5994
ag22
aI6424
aI7509
ag23
aI6248
aI104334
aa(lp169
g25
aI0
aI0
aI0
aI0
aI0
aI0
aI0
aI0
aI0
aI0
aI0
aI0
aI0
aI0
aI0
aI0
aI0
aI0
aI0
aI0
aI0
aI0
aI0
aI0
aI0
aI0
aI0
aI0
aI0
aI0
aI0
aI0
aa(lp170
g27
aI1
aI0
aI0
aI-1
aI-2
aI0
aI-1
aI0
aI0
aI-2
aI-4
aI-1
aI2
aI0
aI-1
aI0
aI0
aI0
aI-1
aI-1
aI-1
aI-2
aI0
aI1
aI1
aI1
aI0
aI2
aI0
aI0
aI-2
aI0
aa(lp171
g29
aI1
aI-2
aI0
aI-1
aI-3
aI0
aI-1
aI0
aI0
aI-2
aI-4
aI-2
aI3
aI-1
aI0
aI0
aI0
aI0
aI-1
aI-1
aI-1
aI-2
aI0
aI1
aI0
aI0
aI0
aI2
aI0
aI0
aI-2
aI0
aa(lp172
g31
aI1
aI0
aI1
aI-2
aI-2
aI0
ag64
aI0
aI0
aI-2
aI-2
aI-1
aI-1
aI2
aI-1
aI0
aI1
aI0
aI-1
aI-1
aI-1
aI-2
aI0
aI0
aI1
aI1
aI-1
aI1
aI0
aI-1
aI-1
aI0
aa(lp173
g33
aI1
aI-1
aI1
aI-1
aI-3
aI0
aI-1
aI0
aI0
aI-2
aI-2
aI0
aI-1
aI2
aI-1
aI0
aI1
aI0
aI-1
aI-1
aI-1
aI-2
aI0
aI0
aI0
aI1
aI-1
aI2
aI0
aI-1
aI-1
aI-1
aa(lp174
g35
aI-1
aI2
aI0
aI-4
aI0
aI-1
aI0
aI1
aI0
aI0
aI1
aI-2
aI-2
aI1
aI-2
aI0
aI-1
aI-1
aI2
aI0
aI0
aI1
aI0
aI0
aI0
aI-1
aI-2
aI0
aI2
aI1
aI0
aI-2
aa(lp175
g37
aI0
aI2
aI0
aI-3
aI1
aI-1
aI0
aI1
aI0
aI-1
aI2
aI0
aI-3
aI1
aI-2
aI0
aI0
aI0
aI2
aI0
aI0
aI-1
aI0
aI0
aI0
aI-1
aI-2
aI0
aI2
aI1
aI0
aI-2
aa(lp176
g39
aI0
aI0
aI0
aI-2
aI2
aI-1
aI0
aI1
aI0
aI0
aI2
aI1
aI-3
aI0
aI-2
aI0
aI-1
aI0
aI0
aI0
aI0
aI0
aI-1
aI0
aI0
aI-3
aI0
aI-2
aI-1
aI1
aI0
aI-4
aa(lp177
g41
aI0
aI-2
aI0
aI-2
aI2
aI-1
aI0
aI1
aI-1
aI0
aI2
aI-1
aI-1
aI0
aI-2
aI0
aI-1
aI0
aI1
aI-1
aI0
aI2
aI-1
aI0
aI-1
aI-1
aI-1
aI-1
aI-1
aI1
aI0
aI-4
aaasS'linearregressionendswithcutoff_imputedtables'
p178
(dp179
g10
(lp180
(lp181
(lp182
g14
aI1721
aI352
ag15
aI2868
aI8709
ag16
aI3866
ag17
aI7514
aI9607
ag18
ag19
aI7959
aI9847
aI3326
aI707
aI6458
aI104439
aI6005
ag20
ag21
aI5106
aI8392
aI8333
aI7381
aI5994
ag22
aI6424
aI7509
ag23
aI6248
aI104334
aa(lp183
g25
aI0
aI0
aI0
aI0
aI0
aI0
aI0
aI0
aI0
aI0
aI0
aI0
aI0
aI0
aI0
aI0
aI0
aI0
aI0
aI0
aI0
aI0
aI0
aI0
aI0
aI0
aI0
aI0
aI0
aI0
aI0
aI0
aa(lp184
g27
aI1
aI0
aI0
aI-1
aI-2
aI0
aI-1
aI0
aI0
aI0
aI-2
aI-4
aI-1
aI2
aI0
aI-1
aI0
aI0
aI0
aI-1
aI-1
aI-2
aI0
aI1
aI1
aI1
aI0
aI2
aI0
aI0
aI-2
aI0
aa(lp185
g29
aI1
aI-2
aI0
aI-1
aI-3
aI0
aI-1
aI0
aI0
aI0
aI-2
aI-4
aI-2
aI3
aI-1
aI0
aI0
aI0
aI0
aI-1
aI-1
aI-2
aI0
aI1
aI0
aI0
aI0
aI2
aI0
aI0
aI-2
aI0
aa(lp186
g31
aI1
aI0
aI1
aI-2
aI-2
aI0
aI-1
aI0
aI0
aI0
aI-2
aI-2
aI-1
aI-1
aI2
aI-1
aI0
aI1
aI0
aI-1
aI-1
aI-2
aI0
aI0
aI1
aI1
aI-1
aI1
aI0
aI-1
aI-1
aI0
aa(lp187
g33
aI1
aI-1
aI1
aI-1
aI-3
aI0
aI-1
aI0
aI0
aI0
aI-2
aI-2
aI0
aI-1
aI2
aI-1
aI0
aI1
aI0
aI-1
aI-1
aI-2
aI0
aI0
aI0
aI1
aI-1
aI2
aI0
aI-1
aI-1
aI-1
aa(lp188
g35
aI-1
aI2
aI0
aI-4
aI0
aI-1
aI0
aI1
aI-1
aI0
aI0
aI1
aI-2
aI-2
aI1
aI-2
aI0
aI-1
aI-1
aI2
aI0
aI1
aI0
aI0
aI0
aI-1
aI-2
aI0
aI2
aI1
aI0
aI-2
aa(lp189
g37
aI0
aI2
aI0
aI-3
aI1
aI-1
aI0
aI1
aI-1
aI0
aI-1
aI2
aI0
aI-3
aI1
aI-2
aI0
aI0
aI0
aI2
aI0
aI-1
aI0
aI0
aI0
aI-1
aI-2
aI0
aI2
aI1
aI0
aI-2
aa(lp190
g39
aI0
aI0
aI0
aI-2
aI2
aI0
aI0
aI1
aI-1
aI0
aI0
aI2
aI1
aI-3
aI0
aI-2
aI0
aI-1
aI0
aI0
aI0
aI0
aI-1
aI0
aI0
aI-3
aI0
aI-2
aI-1
aI1
aI0
aI-4
aa(lp191
g41
aI0
aI-2
aI0
aI-2
aI2
aI-1
aI0
aI1
aI-1
aI-1
aI0
aI2
aI-1
aI-1
aI0
aI-2
aI0
aI-1
aI0
aI1
aI-1
aI2
aI-1
aI0
aI-1
aI-1
aI-1
aI-1
aI-1
aI1
aI0
aI-4
aaa(lp192
(lp193
g14
aI1721
aI352
ag15
aI2868
aI8709
ag16
aI3866
ag17
aI9607
ag18
ag19
aI7959
aI9847
aI3326
aI707
aI6458
aI104439
aI6005
ag20
ag21
aI5284
aI5106
aI8392
aI8333
aI7381
aI5994
ag22
aI6424
aI7509
ag23
aI6248
aI104334
aa(lp194
g25
aI0
aI0
aI0
aI0
aI0
aI0
aI0
aI0
aI0
aI0
aI0
aI0
aI0
aI0
aI0
aI0
aI0
aI0
aI0
aI0
aI0
aI0
aI0
aI0
aI0
aI0
aI0
aI0
aI0
aI0
aI0
aI0
aa(lp195
g27
aI1
aI0
aI0
aI-1
aI-2
aI0
aI-1
aI0
aI0
aI-2
aI-4
aI-1
aI2
aI0
aI-1
aI0
aI0
aI0
aI-1
aI-1
aI-1
aI-2
aI0
aI1
aI1
aI1
aI0
aI2
aI0
aI0
aI-2
aI0
aa(lp196
g29
aI1
aI-2
aI0
aI-1
aI-3
aI0
aI-1
aI0
aI0
aI-2
aI-4
aI-2
aI3
aI-1
aI0
aI0
aI0
aI0
aI-1
aI-1
aI-1
aI-2
aI0
aI1
aI0
aI0
aI0
aI2
aI0
aI0
aI-2
aI0
aa(lp197
g31
aI1
aI0
aI1
aI-2
aI-2
aI0
aI0
aI0
aI0
aI-2
aI-2
aI-1
aI-1
aI2
aI-1
aI0
aI1
aI0
aI-1
aI-1
aI-1
aI-2
aI0
aI0
aI1
aI1
aI-1
aI1
aI0
aI-1
aI-1
aI0
aa(lp198
g33
aI1
aI-1
aI1
aI-1
aI-3
aI0
aI-1
aI0
aI0
aI-2
aI-2
aI0
aI-1
aI2
aI-1
aI0
aI1
aI0
aI-1
aI-1
aI-1
aI-2
aI0
aI0
aI0
aI1
aI-1
aI2
aI0
aI-1
aI-1
aI-1
aa(lp199
g35
aI-1
aI2
aI0
aI-4
aI0
aI-1
aI0
aI1
aI0
aI0
aI1
aI-2
aI-2
aI1
aI-2
aI0
aI-1
aI-1
aI2
aI0
aI0
aI1
aI0
aI0
aI0
aI-1
aI-2
aI0
aI2
aI1
aI0
aI-2
aa(lp200
g37
aI0
aI2
aI0
aI-3
aI1
aI-1
aI0
aI1
aI0
aI-1
aI2
aI0
aI-3
aI1
aI-2
aI0
aI0
aI0
aI2
aI0
aI0
aI-1
aI0
aI0
aI0
aI-1
aI-2
aI0
aI2
aI1
aI0
aI-2
aa(lp201
g39
aI0
aI0
aI0
aI-2
aI2
aI-1
aI0
aI1
aI0
aI0
aI2
aI1
aI-3
aI0
aI-2
aI0
aI-1
aI0
aI0
aI0
aI0
aI0
aI-1
aI0
aI0
aI-3
aI0
aI-2
aI-1
aI1
aI0
aI-4
aa(lp202
g41
aI0
aI-2
aI0
aI-2
aI2
aI-1
aI0
aI1
aI-1
aI0
aI2
aI-1
aI-1
aI0
aI-2
aI0
aI-1
aI0
aI1
aI-1
aI0
aI2
aI-1
aI0
aI-1
aI-1
aI-1
aI-1
aI-1
aI1
aI0
aI-4
aaassS'Fitchforimputation_imputedtables'
p203
(dp204
g10
(lp205
(lp206
(lp207
g14
aI1721
aI352
ag15
aI2868
aI8709
ag16
aI3866
ag17
aI9607
ag18
ag19
aI7959
aI9847
aI3326
aI707
aI6458
aI104439
aI6005
ag20
ag21
aI5106
aI8392
aI8333
aI7381
aI5994
ag22
aI6424
aI7509
ag23
aI6248
aI104334
aa(lp208
g25
aI0
aI0
aI0
aI0
aI0
aI0
aI0
aI0
aI0
aI0
aI0
aI0
aI0
aI0
aI0
aI0
aI0
aI0
aI0
aI0
aI0
aI0
aI0
aI0
aI0
aI0
aI0
aI0
aI0
aI0
aI0
aa(lp209
g27
aI1
aI0
aI0
aI-1
aI-2
aI0
aI-1
aI0
aI0
aI-2
aI-4
aI-1
aI2
aI0
aI-1
aI0
aI0
aI0
aI-1
aI-1
aI-2
aI0
aI1
aI1
aI1
aI0
aI2
aI0
aI0
aI-2
aI0
aa(lp210
g29
aI1
aI-2
aI0
aI-1
aI-3
aI0
aI-1
aI0
aI0
aI-2
aI-4
aI-2
aI3
aI-1
aI0
aI0
aI0
aI0
aI-1
aI-1
aI-2
aI0
aI1
aI0
aI0
aI0
aI2
aI0
aI0
aI-2
aI0
aa(lp211
g31
aI1
aI0
aI1
aI-2
aI-2
aI0
aI-1
aI0
aI0
aI-2
aI-2
aI-1
aI-1
aI2
aI-1
aI0
aI1
aI0
aI-1
aI-1
aI-2
aI0
aI0
aI1
aI1
aI-1
aI1
aI0
aI-1
aI-1
aI0
aa(lp212
g33
aI1
aI-1
aI1
aI-1
aI-3
aI0
aI-1
aI0
aI0
aI-2
aI-2
aI0
aI-1
aI2
aI-1
aI0
aI1
aI0
aI-1
aI-1
aI-2
aI0
aI0
aI0
aI1
aI-1
aI2
aI0
aI-1
aI-1
aI-1
aa(lp213
g35
aI-1
aI2
aI0
aI-4
aI0
aI-1
aI0
aI1
aI0
aI0
aI1
aI-2
aI-2
aI1
aI-2
aI0
aI-1
aI-1
aI2
aI0
aI1
aI0
aI0
aI0
aI-1
aI-2
aI0
aI2
aI1
aI0
aI-2
aa(lp214
g37
aI0
aI2
aI0
aI-3
aI1
aI-1
aI0
aI1
aI0
aI-1
aI2
aI0
aI-3
aI1
aI-2
aI0
aI0
aI0
aI2
aI0
aI-1
aI0
aI0
aI0
aI-1
aI-2
aI0
aI2
aI1
aI0
aI-2
aa(lp215
g39
aI0
aI0
aI0
aI-2
aI2
aI-1
aI0
aI1
aI0
aI0
aI2
aI1
aI-3
aI0
aI-2
aI0
aI-1
aI0
aI0
aI0
aI0
aI-1
aI0
aI0
aI-3
aI0
aI-2
aI-1
aI1
aI0
aI-4
aa(lp216
g41
aI0
aI-2
aI0
aI-2
aI2
aI-1
aI0
aI1
aI-1
aI0
aI2
aI-1
aI-1
aI0
aI-2
aI0
aI-1
aI0
aI1
aI-1
aI2
aI-1
aI0
aI-1
aI-1
aI-1
aI-1
aI-1
aI1
aI0
aI-4
aaa(lp217
(lp218
g14
aI1721
aI352
ag15
aI2868
aI8709
ag16
aI3866
ag17
aI9607
ag18
ag19
aI7959
aI9847
aI3326
aI707
aI6458
aI104439
aI6005
ag20
ag21
aI5106
aI8392
aI8333
aI7381
aI5994
ag22
aI6424
aI7509
ag23
aI6248
aI104334
aa(lp219
g25
aI0
aI0
aI0
aI0
aI0
aI0
aI0
aI0
aI0
aI0
aI0
aI0
aI0
aI0
aI0
aI0
aI0
aI0
aI0
aI0
aI0
aI0
aI0
aI0
aI0
aI0
aI0
aI0
aI0
aI0
aI0
aa(lp220
g27
aI1
aI0
aI0
aI-1
aI-2
aI0
aI-1
aI0
aI0
aI-2
aI-4
aI-1
aI2
aI0
aI-1
aI0
aI0
aI0
aI-1
aI-1
aI-2
aI0
aI1
aI1
aI1
aI0
aI2
aI0
aI0
aI-2
aI0
aa(lp221
g29
aI1
aI-2
aI0
aI-1
aI-3
aI0
aI-1
aI0
aI0
aI-2
aI-4
aI-2
aI3
aI-1
aI0
aI0
aI0
aI0
aI-1
aI-1
aI-2
aI0
aI1
aI0
aI0
aI0
aI2
aI0
aI0
aI-2
aI0
aa(lp222
g31
aI1
aI0
aI1
aI-2
aI-2
aI0
aI-1
aI0
aI0
aI-2
aI-2
aI-1
aI-1
aI2
aI-1
aI0
aI1
aI0
aI-1
aI-1
aI-2
aI0
aI0
aI1
aI1
aI-1
aI1
aI0
aI-1
aI-1
aI0
aa(lp223
g33
aI1
aI-1
aI1
aI-1
aI-3
aI0
aI-1
aI0
aI0
aI-2
aI-2
aI0
aI-1
aI2
aI-1
aI0
aI1
aI0
aI-1
aI-1
aI-2
aI0
aI0
aI0
aI1
aI-1
aI2
aI0
aI-1
aI-1
aI-1
aa(lp224
g35
aI-1
aI2
aI0
aI-4
aI0
aI-1
aI0
aI1
aI0
aI0
aI1
aI-2
aI-2
aI1
aI-2
aI0
aI-1
aI-1
aI2
aI0
aI1
aI0
aI0
aI0
aI-1
aI-2
aI0
aI2
aI1
aI0
aI-2
aa(lp225
g37
aI0
aI2
aI0
aI-3
aI1
aI-1
aI0
aI1
aI0
aI-1
aI2
aI0
aI-3
aI1
aI-2
aI0
aI0
aI0
aI2
aI0
aI-1
aI0
aI0
aI0
aI-1
aI-2
aI0
aI2
aI1
aI0
aI-2
aa(lp226
g39
aI0
aI0
aI0
aI-2
aI2
aI-1
aI0
aI1
aI0
aI0
aI2
aI1
aI-3
aI0
aI-2
aI0
aI-1
aI0
aI0
aI0
aI0
aI-1
aI0
aI0
aI-3
aI0
aI-2
aI-1
aI1
aI0
aI-4
aa(lp227
g41
aI0
aI-2
aI0
aI-2
aI2
aI-1
aI0
aI1
aI-1
aI0
aI2
aI-1
aI-1
aI0
aI-2
aI0
aI-1
aI0
aI1
aI-1
aI2
aI-1
aI0
aI-1
aI-1
aI-1
aI-1
aI-1
aI1
aI0
aI-4
aaassssS'missingentriestablesdata_madeby_rauvfm'
p228
(dp229
S'tableswith 2 missingentries'
p230
(dp231
S'onennimputationuniform_imputedtables'
p232
(dp233
g10
(lp234
(lp235
(lp236
g14
aI1721
aI352
ag15
aI2868
aI8709
ag16
aI3866
ag17
aI9607
ag18
ag19
aI7959
aI9847
aI3326
aI707
aI6458
aI104439
aI6005
ag20
ag21
aI5106
aI8392
aI8333
aI7381
aI5994
ag22
aI6424
aI7509
ag23
aI6248
aI104334
aa(lp237
g25
aI0
aI0
aI0
aI0
aI0
aI0
aI0
aI0
aI0
aI0
aI0
aI0
aI0
aI0
aI0
aI0
aI0
aI0
aI0
aI0
aI0
aI0
aI0
aI0
aI0
aI0
aI0
aI0
aI0
aI0
aI0
aa(lp238
g27
aI1
aI0
aI0
aI-1
aI-2
aI0
aI-1
aI0
aI0
aI-2
aI-4
aI-1
aI2
aI0
aI-1
aI0
aI0
aI0
aI-1
aI-1
aI-2
aI0
aI1
aI1
aI1
aI0
aI2
aI0
aI0
aI-2
aI0
aa(lp239
g29
aI1
aI-2
aI0
aI-1
aI-3
aI0
aI-1
aI0
aI0
aI-2
aI-4
aI-2
aI3
aI-1
aI0
aI0
aI0
aI0
aI-1
aI-1
aI-2
aI0
aI1
aI0
aI0
aI0
aI2
aI0
aI0
aI-2
aI0
aa(lp240
g31
aI1
aI0
aI1
aI-2
aI-2
aI0
aI-1
aI0
aI0
aI-2
aI-2
aI-1
aI-1
aI2
aI-1
aI0
aI1
aI0
aI-1
aI-1
aI-2
aI0
aI0
aI1
aI1
aI-1
aI1
aI0
aI-1
aI-1
aI0
aa(lp241
g33
aI1
aI-1
aI1
aI-1
aI-3
aI0
aI-1
aI0
aI0
aI-2
aI-2
aI0
aI-1
aI2
aI-1
aI0
aI1
aI0
aI-1
aI-1
aI-2
aI0
aI0
aI0
aI1
aI-1
aI2
aI0
aI-1
aI-1
aI-1
aa(lp242
g35
aI-1
aI2
aI0
aI-4
aI0
aI-1
aI0
aI1
aI0
aI0
aI1
aI-2
aI-2
aI1
aI-2
aI0
aI-1
aI-1
aI2
aI0
aI1
aI0
aI0
aI0
aI-1
aI-2
aI0
aI2
aI1
aI0
aI-2
aa(lp243
g37
aI0
aI2
aI0
aI-3
aI1
aI-1
aI0
aI1
aI0
aI-1
aI2
aI0
aI-3
aI1
aI-2
aI0
aI0
aI0
aI2
aI0
aI-1
aI0
aI0
aI0
aI-1
aI-2
aI0
aI2
aI1
aI0
aI-2
aa(lp244
g39
aI0
aI0
aI0
aI-2
aI2
aI-1
aI0
aI1
aI0
aI0
aI2
aI1
aI-3
aI0
aI-2
aI0
aI-1
aI0
aI0
aI0
aI0
aI-1
aI0
aI0
aI-3
aI0
aI-2
aI-1
aI1
aI0
aI-4
aa(lp245
g41
aI0
aI-2
aI0
aI-2
aI2
aI-1
aI0
aI1
aI-1
aI0
aI2
aI-1
aI-1
aI0
aI-2
aI0
aI-1
aI0
aI1
aI-1
aI2
aI-1
aI0
aI-1
aI-1
aI-1
aI-1
aI-1
aI1
aI0
aI-4
aaa(lp246
(lp247
g14
aI1721
aI352
ag15
aI2868
aI8709
ag16
aI3866
ag17
aI9607
ag18
ag19
aI7959
aI9847
aI3326
aI707
aI6458
aI104439
aI6005
ag20
ag21
aI5106
aI8392
aI8333
aI7381
aI5994
ag22
aI6424
aI7509
ag23
aI6248
aI104334
aa(lp248
g25
aI0
aI0
aI0
aI0
aI0
aI0
aI0
aI0
aI0
aI0
aI0
aI0
aI3
aI0
aI0
aI0
aI0
aI0
aI0
aI0
aI0
aI0
aI0
aI0
aI0
aI0
aI0
aI0
aI0
aI0
aI0
aa(lp249
g27
aI1
aI0
aI0
aI-1
aI-2
aI0
aI-1
aI0
aI0
aI-2
aI-4
aI-1
aI2
aI0
aI-1
aI0
aI0
aI0
aI-1
aI-1
aI-2
aI0
aI1
aI1
aI1
aI0
aI2
aI0
aI0
aI-2
aI0
aa(lp250
g29
aI1
aI-2
aI0
aI-1
aI-3
aI0
aI-1
aI0
aI0
aI-2
aI-4
aI-2
aI3
aI-1
aI0
aI0
aI0
aI0
aI-1
aI-1
aI-2
aI0
aI1
aI0
aI0
aI0
aI2
aI0
aI0
aI-2
aI0
aa(lp251
g31
aI1
aI0
aI1
aI-2
aI-2
aI0
aI-1
aI0
aI0
aI-2
aI-2
aI-1
aI-1
aI2
aI-1
aI0
aI1
aI0
aI-1
aI-1
aI-2
aI0
aI0
aI1
aI1
aI-1
aI1
aI0
aI-1
aI-1
aI0
aa(lp252
g33
aI1
aI-1
aI1
aI-1
aI-3
aI0
aI-1
aI0
aI0
aI-2
aI-2
aI0
aI-1
aI2
aI-1
aI0
aI1
aI0
aI-1
aI-1
aI-2
aI0
aI0
aI0
aI1
aI-1
aI2
aI0
aI-1
aI-1
aI-1
aa(lp253
g35
aI-1
aI2
aI0
aI-4
aI0
aI-1
aI0
aI1
aI0
aI0
aI1
aI-2
aI-2
aI1
aI-2
aI0
aI-1
aI-1
aI2
aI0
aI1
aI0
aI0
aI0
aI-1
aI-2
aI0
aI2
aI1
aI0
aI-2
aa(lp254
g37
aI0
aI2
aI0
aI-3
aI1
aI-1
aI0
aI1
aI0
aI-1
aI2
aI0
aI-3
aI1
aI-2
aI0
aI0
aI0
aI2
aI0
aI-1
aI0
aI0
aI0
aI-1
aI-2
aI0
aI2
aI1
aI0
aI-2
aa(lp255
g39
aI0
aI0
aI0
aI-2
aI2
aI-1
aI0
aI1
aI0
aI0
aI2
aI1
aI-3
aI0
aI-2
aI0
aI-1
aI0
aI0
aI-1
aI0
aI-1
aI0
aI0
aI-3
aI0
aI-2
aI-1
aI1
aI0
aI-4
aa(lp256
g41
aI0
aI-2
aI0
aI-2
aI2
aI-1
aI0
aI1
aI-1
aI0
aI2
aI-1
aI-1
aI0
aI-2
aI0
aI-1
aI0
aI1
aI-1
aI2
aI-1
aI0
aI-1
aI-1
aI-1
aI-1
aI-1
aI1
aI0
aI-4
aaassg53
(lp257
(lp258
(lp259
g14
aI1721
aI352
ag15
aI2868
aI8709
ag16
aI3866
ag17
aI9607
ag18
ag19
aI7959
aI9847
aI3326
aI707
aI6458
aI104439
aI6005
ag20
ag21
aI5106
aI8392
aI8333
aI7381
aI5994
ag22
aI6424
aI7509
ag23
aI6248
aI104334
aa(lp260
g25
aI0
aI0
aI0
aI0
aI0
aI0
aI0
aI0
aI0
aI0
aI0
aI0
aI0
aI0
aI0
aI0
aI0
aI0
aI0
aI0
aI0
aI0
aI0
aI0
aI0
aI0
aI0
aI0
aI0
aI0
aI0
aa(lp261
g27
aI1
aI0
aI0
aI-1
aI-2
aI0
aI-1
aI0
aI0
aI-2
aI-4
aI-1
aI2
aI0
aI-1
aI0
aI0
aI0
aI-1
aI-1
aI-2
aI0
aI1
aI1
aI1
aI0
aI2
aI0
aI0
aI-2
aI0
aa(lp262
g29
aI1
aI-2
aI0
aI-1
aI-3
aI0
aI-1
aI0
aI0
aI-2
aI-4
aI-2
aI3
aI-1
aI0
aI0
aI0
aI0
aI-1
aI-1
aI-2
aI0
aI1
aI0
aI0
aI0
aI2
aI0
aI0
aI-2
aI0
aa(lp263
g31
aI1
aI0
aI1
aI-2
aI-2
aI0
aI-1
aI0
aI0
aI-2
aI-2
aI-1
aI-1
aI2
aI-1
aI0
aI1
aI0
aI-1
aI-1
aI-2
aI0
aI0
aI1
aI1
aI-1
aI1
aI0
aI-1
aI-1
aI0
aa(lp264
g33
aI1
aI-1
aI1
aI-1
aI-3
aI0
aI-1
aI0
aI0
aI-2
aI-2
aI0
aI-1
aI2
aI-1
aI0
aI1
aI0
aI-1
aI-1
aI-2
aI0
aI0
aI0
ag64
aI-1
aI2
aI0
aI-1
aI-1
aI-1
aa(lp265
g35
aI-1
aI2
aI0
aI-4
aI0
aI-1
aI0
aI1
aI0
aI0
aI1
aI-2
aI-2
aI1
aI-2
aI0
aI-1
aI-1
aI2
aI0
aI1
ag64
aI0
aI0
aI-1
aI-2
aI0
aI2
aI1
aI0
aI-2
aa(lp266
g37
aI0
aI2
aI0
aI-3
aI1
aI-1
aI0
aI1
aI0
aI-1
aI2
aI0
aI-3
aI1
aI-2
aI0
aI0
aI0
aI2
aI0
aI-1
aI0
aI0
aI0
aI-1
aI-2
aI0
aI2
aI1
aI0
aI-2
aa(lp267
g39
aI0
aI0
aI0
aI-2
aI2
aI-1
aI0
aI1
aI0
aI0
aI2
aI1
aI-3
aI0
aI-2
aI0
aI-1
aI0
aI0
aI0
aI0
aI-1
aI0
aI0
aI-3
aI0
aI-2
aI-1
aI1
aI0
aI-4
aa(lp268
g41
aI0
aI-2
aI0
aI-2
aI2
aI-1
aI0
aI1
aI-1
aI0
aI2
aI-1
aI-1
aI0
aI-2
aI0
aI-1
aI0
aI1
aI-1
aI2
aI-1
aI0
aI-1
aI-1
aI-1
aI-1
aI-1
aI1
aI0
aI-4
aaa(lp269
(lp270
g14
aI1721
aI352
ag15
aI2868
aI8709
ag16
aI3866
ag17
aI9607
ag18
ag19
aI7959
aI9847
aI3326
aI707
aI6458
aI104439
aI6005
ag20
ag21
aI5106
aI8392
aI8333
aI7381
aI5994
ag22
aI6424
aI7509
ag23
aI6248
aI104334
aa(lp271
g25
aI0
aI0
aI0
aI0
aI0
aI0
aI0
aI0
aI0
aI0
aI0
aI0
ag64
aI0
aI0
aI0
aI0
aI0
aI0
aI0
aI0
aI0
aI0
aI0
aI0
aI0
aI0
aI0
aI0
aI0
aI0
aa(lp272
g27
aI1
aI0
aI0
aI-1
aI-2
aI0
aI-1
aI0
aI0
aI-2
aI-4
aI-1
aI2
aI0
aI-1
aI0
aI0
aI0
aI-1
aI-1
aI-2
aI0
aI1
aI1
aI1
aI0
aI2
aI0
aI0
aI-2
aI0
aa(lp273
g29
aI1
aI-2
aI0
aI-1
aI-3
aI0
aI-1
aI0
aI0
aI-2
aI-4
aI-2
aI3
aI-1
aI0
aI0
aI0
aI0
aI-1
aI-1
aI-2
aI0
aI1
aI0
aI0
aI0
aI2
aI0
aI0
aI-2
aI0
aa(lp274
g31
aI1
aI0
aI1
aI-2
aI-2
aI0
aI-1
aI0
aI0
aI-2
aI-2
aI-1
aI-1
aI2
aI-1
aI0
aI1
aI0
aI-1
aI-1
aI-2
aI0
aI0
aI1
aI1
aI-1
aI1
aI0
aI-1
aI-1
aI0
aa(lp275
g33
aI1
aI-1
aI1
aI-1
aI-3
aI0
aI-1
aI0
aI0
aI-2
aI-2
aI0
aI-1
aI2
aI-1
aI0
aI1
aI0
aI-1
aI-1
aI-2
aI0
aI0
aI0
aI1
aI-1
aI2
aI0
aI-1
aI-1
aI-1
aa(lp276
g35
aI-1
aI2
aI0
aI-4
aI0
aI-1
aI0
aI1
aI0
aI0
aI1
aI-2
aI-2
aI1
aI-2
aI0
aI-1
aI-1
aI2
aI0
aI1
aI0
aI0
aI0
aI-1
aI-2
aI0
aI2
aI1
aI0
aI-2
aa(lp277
g37
aI0
aI2
aI0
aI-3
aI1
aI-1
aI0
aI1
aI0
aI-1
aI2
aI0
aI-3
aI1
aI-2
aI0
aI0
aI0
aI2
aI0
aI-1
aI0
aI0
aI0
aI-1
aI-2
aI0
aI2
aI1
aI0
aI-2
aa(lp278
g39
aI0
aI0
aI0
aI-2
aI2
aI-1
aI0
aI1
aI0
aI0
aI2
aI1
aI-3
aI0
aI-2
aI0
aI-1
aI0
aI0
ag64
aI0
aI-1
aI0
aI0
aI-3
aI0
aI-2
aI-1
aI1
aI0
aI-4
aa(lp279
g41
aI0
aI-2
aI0
aI-2
aI2
aI-1
aI0
aI1
aI-1
aI0
aI2
aI-1
aI-1
aI0
aI-2
aI0
aI-1
aI0
aI1
aI-1
aI2
aI-1
aI0
aI-1
aI-1
aI-1
aI-1
aI-1
aI1
aI0
aI-4
aaasS'linearregressionendswithcutoff_imputedtables'
p280
(dp281
g10
(lp282
(lp283
(lp284
g14
aI1721
aI352
ag15
aI2868
aI8709
ag16
aI3866
ag17
aI9607
ag18
ag19
aI7959
aI9847
aI3326
aI707
aI6458
aI104439
aI6005
ag20
ag21
aI5106
aI8392
aI8333
aI7381
aI5994
ag22
aI6424
aI7509
ag23
aI6248
aI104334
aa(lp285
g25
aI0
aI0
aI0
aI0
aI0
aI0
aI0
aI0
aI0
aI0
aI0
aI0
aI0
aI0
aI0
aI0
aI0
aI0
aI0
aI0
aI0
aI0
aI0
aI0
aI0
aI0
aI0
aI0
aI0
aI0
aI0
aa(lp286
g27
aI1
aI0
aI0
aI-1
aI-2
aI0
aI-1
aI0
aI0
aI-2
aI-4
aI-1
aI2
aI0
aI-1
aI0
aI0
aI0
aI-1
aI-1
aI-2
aI0
aI1
aI1
aI1
aI0
aI2
aI0
aI0
aI-2
aI0
aa(lp287
g29
aI1
aI-2
aI0
aI-1
aI-3
aI0
aI-1
aI0
aI0
aI-2
aI-4
aI-2
aI3
aI-1
aI0
aI0
aI0
aI0
aI-1
aI-1
aI-2
aI0
aI1
aI0
aI0
aI0
aI2
aI0
aI0
aI-2
aI0
aa(lp288
g31
aI1
aI0
aI1
aI-2
aI-2
aI0
aI-1
aI0
aI0
aI-2
aI-2
aI-1
aI-1
aI2
aI-1
aI0
aI1
aI0
aI-1
aI-1
aI-2
aI0
aI0
aI1
aI1
aI-1
aI1
aI0
aI-1
aI-1
aI0
aa(lp289
g33
aI1
aI-1
aI1
aI-1
aI-3
aI0
aI-1
aI0
aI0
aI-2
aI-2
aI0
aI-1
aI2
aI-1
aI0
aI1
aI0
aI-1
aI-1
aI-2
aI0
aI0
aI0
aI-1
aI-1
aI2
aI0
aI-1
aI-1
aI-1
aa(lp290
g35
aI-1
aI2
aI0
aI-4
aI0
aI-1
aI0
aI1
aI0
aI0
aI1
aI-2
aI-2
aI1
aI-2
aI0
aI-1
aI-1
aI2
aI0
aI1
aI0
aI0
aI0
aI-1
aI-2
aI0
aI2
aI1
aI0
aI-2
aa(lp291
g37
aI0
aI2
aI0
aI-3
aI1
aI-1
aI0
aI1
aI0
aI-1
aI2
aI0
aI-3
aI1
aI-2
aI0
aI0
aI0
aI2
aI0
aI-1
aI0
aI0
aI0
aI-1
aI-2
aI0
aI2
aI1
aI0
aI-2
aa(lp292
g39
aI0
aI0
aI0
aI-2
aI2
aI-1
aI0
aI1
aI0
aI0
aI2
aI1
aI-3
aI0
aI-2
aI0
aI-1
aI0
aI0
aI0
aI0
aI-1
aI0
aI0
aI-3
aI0
aI-2
aI-1
aI1
aI0
aI-4
aa(lp293
g41
aI0
aI-2
aI0
aI-2
aI2
aI-1
aI0
aI1
aI-1
aI0
aI2
aI-1
aI-1
aI0
aI-2
aI0
aI-1
aI0
aI1
aI-1
aI2
aI-1
aI0
aI-1
aI-1
aI-1
aI-1
aI-1
aI1
aI0
aI-4
aaa(lp294
(lp295
g14
aI1721
aI352
ag15
aI2868
aI8709
ag16
aI3866
ag17
aI9607
ag18
ag19
aI7959
aI9847
aI3326
aI707
aI6458
aI104439
aI6005
ag20
ag21
aI5106
aI8392
aI8333
aI7381
aI5994
ag22
aI6424
aI7509
ag23
aI6248
aI104334
aa(lp296
g25
aI0
aI0
aI0
aI0
aI0
aI0
aI0
aI0
aI0
aI0
aI0
aI0
aI-1
aI0
aI0
aI0
aI0
aI0
aI0
aI0
aI0
aI0
aI0
aI0
aI0
aI0
aI0
aI0
aI0
aI0
aI0
aa(lp297
g27
aI1
aI0
aI0
aI-1
aI-2
aI0
aI-1
aI0
aI0
aI-2
aI-4
aI-1
aI2
aI0
aI-1
aI0
aI0
aI0
aI-1
aI-1
aI-2
aI0
aI1
aI1
aI1
aI0
aI2
aI0
aI0
aI-2
aI0
aa(lp298
g29
aI1
aI-2
aI0
aI-1
aI-3
aI0
aI-1
aI0
aI0
aI-2
aI-4
aI-2
aI3
aI-1
aI0
aI0
aI0
aI0
aI-1
aI-1
aI-2
aI0
aI1
aI0
aI0
aI0
aI2
aI0
aI0
aI-2
aI0
aa(lp299
g31
aI1
aI0
aI1
aI-2
aI-2
aI0
aI-1
aI0
aI0
aI-2
aI-2
aI-1
aI-1
aI2
aI-1
aI0
aI1
aI0
aI-1
aI-1
aI-2
aI0
aI0
aI1
aI1
aI-1
aI1
aI0
aI-1
aI-1
aI0
aa(lp300
g33
aI1
aI-1
aI1
aI-1
aI-3
aI0
aI-1
aI0
aI0
aI-2
aI-2
aI0
aI-1
aI2
aI-1
aI0
aI1
aI0
aI-1
aI-1
aI-2
aI0
aI0
aI0
aI1
aI-1
aI2
aI0
aI-1
aI-1
aI-1
aa(lp301
g35
aI-1
aI2
aI0
aI-4
aI0
aI-1
aI0
aI1
aI0
aI0
aI1
aI-2
aI-2
aI1
aI-2
aI0
aI-1
aI-1
aI2
aI0
aI1
aI0
aI0
aI0
aI-1
aI-2
aI0
aI2
aI1
aI0
aI-2
aa(lp302
g37
aI0
aI2
aI0
aI-3
aI1
aI-1
aI0
aI1
aI0
aI-1
aI2
aI0
aI-3
aI1
aI-2
aI0
aI0
aI0
aI2
aI0
aI-1
aI0
aI0
aI0
aI-1
aI-2
aI0
aI2
aI1
aI0
aI-2
aa(lp303
g39
aI0
aI0
aI0
aI-2
aI2
aI-1
aI0
aI1
aI0
aI0
aI2
aI1
aI-3
aI0
aI-2
aI0
aI-1
aI0
aI0
aI-1
aI0
aI-1
aI0
aI0
aI-3
aI0
aI-2
aI-1
aI1
aI0
aI-4
aa(lp304
g41
aI0
aI-2
aI0
aI-2
aI2
aI-1
aI0
aI1
aI-1
aI0
aI2
aI-1
aI-1
aI0
aI-2
aI0
aI-1
aI0
aI1
aI-1
aI2
aI-1
aI0
aI-1
aI-1
aI-1
aI-1
aI-1
aI1
aI0
aI-4
aaassS'Fitchforimputation_imputedtables'
p305
(dp306
g10
(lp307
(lp308
(lp309
g14
aI1721
aI352
ag15
aI2868
aI8709
ag16
aI3866
ag17
aI9607
ag18
ag19
aI7959
aI9847
aI3326
aI707
aI6458
aI104439
aI6005
ag20
ag21
aI5106
aI8392
aI8333
aI7381
aI5994
ag22
aI6424
aI7509
ag23
aI6248
aI104334
aa(lp310
g25
aI0
aI0
aI0
aI0
aI0
aI0
aI0
aI0
aI0
aI0
aI0
aI0
aI0
aI0
aI0
aI0
aI0
aI0
aI0
aI0
aI0
aI0
aI0
aI0
aI0
aI0
aI0
aI0
aI0
aI0
aI0
aa(lp311
g27
aI1
aI0
aI0
aI-1
aI-2
aI0
aI-1
aI0
aI0
aI-2
aI-4
aI-1
aI2
aI0
aI-1
aI0
aI0
aI0
aI-1
aI-1
aI-2
aI0
aI1
aI1
aI1
aI0
aI2
aI0
aI0
aI-2
aI0
aa(lp312
g29
aI1
aI-2
aI0
aI-1
aI-3
aI0
aI-1
aI0
aI0
aI-2
aI-4
aI-2
aI3
aI-1
aI0
aI0
aI0
aI0
aI-1
aI-1
aI-2
aI0
aI1
aI0
aI0
aI0
aI2
aI0
aI0
aI-2
aI0
aa(lp313
g31
aI1
aI0
aI1
aI-2
aI-2
aI0
aI-1
aI0
aI0
aI-2
aI-2
aI-1
aI-1
aI2
aI-1
aI0
aI1
aI0
aI-1
aI-1
aI-2
aI0
aI0
aI1
aI1
aI-1
aI1
aI0
aI-1
aI-1
aI0
aa(lp314
g33
aI1
aI-1
aI1
aI-1
aI-3
aI0
aI-1
aI0
aI0
aI-2
aI-2
aI0
aI-1
aI2
aI-1
aI0
aI1
aI0
aI-1
aI-1
aI-2
aI0
aI0
aI0
aI1
aI-1
aI2
aI0
aI-1
aI-1
aI-1
aa(lp315
g35
aI-1
aI2
aI0
aI-4
aI0
aI-1
aI0
aI1
aI0
aI0
aI1
aI-2
aI-2
aI1
aI-2
aI0
aI-1
aI-1
aI2
aI0
aI1
aI0
aI0
aI0
aI-1
aI-2
aI0
aI2
aI1
aI0
aI-2
aa(lp316
g37
aI0
aI2
aI0
aI-3
aI1
aI-1
aI0
aI1
aI0
aI-1
aI2
aI0
aI-3
aI1
aI-2
aI0
aI0
aI0
aI2
aI0
aI-1
aI0
aI0
aI0
aI-1
aI-2
aI0
aI2
aI1
aI0
aI-2
aa(lp317
g39
aI0
aI0
aI0
aI-2
aI2
aI-1
aI0
aI1
aI0
aI0
aI2
aI1
aI-3
aI0
aI-2
aI0
aI-1
aI0
aI0
aI0
aI0
aI-1
aI0
aI0
aI-3
aI0
aI-2
aI-1
aI1
aI0
aI-4
aa(lp318
g41
aI0
aI-2
aI0
aI-2
aI2
aI-1
aI0
aI1
aI-1
aI0
aI2
aI-1
aI-1
aI0
aI-2
aI0
aI-1
aI0
aI1
aI-1
aI2
aI-1
aI0
aI-1
aI-1
aI-1
aI-1
aI-1
aI1
aI0
aI-4
aaa(lp319
(lp320
g14
aI1721
aI352
ag15
aI2868
aI8709
ag16
aI3866
ag17
aI9607
ag18
ag19
aI7959
aI9847
aI3326
aI707
aI6458
aI104439
aI6005
ag20
ag21
aI5106
aI8392
aI8333
aI7381
aI5994
ag22
aI6424
aI7509
ag23
aI6248
aI104334
aa(lp321
g25
aI0
aI0
aI0
aI0
aI0
aI0
aI0
aI0
aI0
aI0
aI0
aI0
aI-3
aI0
aI0
aI0
aI0
aI0
aI0
aI0
aI0
aI0
aI0
aI0
aI0
aI0
aI0
aI0
aI0
aI0
aI0
aa(lp322
g27
aI1
aI0
aI0
aI-1
aI-2
aI0
aI-1
aI0
aI0
aI-2
aI-4
aI-1
aI2
aI0
aI-1
aI0
aI0
aI0
aI-1
aI-1
aI-2
aI0
aI1
aI1
aI1
aI0
aI2
aI0
aI0
aI-2
aI0
aa(lp323
g29
aI1
aI-2
aI0
aI-1
aI-3
aI0
aI-1
aI0
aI0
aI-2
aI-4
aI-2
aI3
aI-1
aI0
aI0
aI0
aI0
aI-1
aI-1
aI-2
aI0
aI1
aI0
aI0
aI0
aI2
aI0
aI0
aI-2
aI0
aa(lp324
g31
aI1
aI0
aI1
aI-2
aI-2
aI0
aI-1
aI0
aI0
aI-2
aI-2
aI-1
aI-1
aI2
aI-1
aI0
aI1
aI0
aI-1
aI-1
aI-2
aI0
aI0
aI1
aI1
aI-1
aI1
aI0
aI-1
aI-1
aI0
aa(lp325
g33
aI1
aI-1
aI1
aI-1
aI-3
aI0
aI-1
aI0
aI0
aI-2
aI-2
aI0
aI-1
aI2
aI-1
aI0
aI1
aI0
aI-1
aI-1
aI-2
aI0
aI0
aI0
aI1
aI-1
aI2
aI0
aI-1
aI-1
aI-1
aa(lp326
g35
aI-1
aI2
aI0
aI-4
aI0
aI-1
aI0
aI1
aI0
aI0
aI1
aI-2
aI-2
aI1
aI-2
aI0
aI-1
aI-1
aI2
aI0
aI1
aI0
aI0
aI0
aI-1
aI-2
aI0
aI2
aI1
aI0
aI-2
aa(lp327
g37
aI0
aI2
aI0
aI-3
aI1
aI-1
aI0
aI1
aI0
aI-1
aI2
aI0
aI-3
aI1
aI-2
aI0
aI0
aI0
aI2
aI0
aI-1
aI0
aI0
aI0
aI-1
aI-2
aI0
aI2
aI1
aI0
aI-2
aa(lp328
g39
aI0
aI0
aI0
aI-2
aI2
aI-1
aI0
aI1
aI0
aI0
aI2
aI1
aI-3
aI0
aI-2
aI0
aI-1
aI0
aI0
aI-1
aI0
aI-1
aI0
aI0
aI-3
aI0
aI-2
aI-1
aI1
aI0
aI-4
aa(lp329
g41
aI0
aI-2
aI0
aI-2
aI2
aI-1
aI0
aI1
aI-1
aI0
aI2
aI-1
aI-1
aI0
aI-2
aI0
aI-1
aI0
aI1
aI-1
aI2
aI-1
aI0
aI-1
aI-1
aI-1
aI-1
aI-1
aI1
aI0
aI-4
aaasssS'tableswith 1 missingentries'
p330
(dp331
S'onennimputationuniform_imputedtables'
p332
(dp333
g10
(lp334
(lp335
(lp336
g14
aI1721
aI352
ag15
aI2868
aI8709
ag16
aI3866
ag17
aI9607
ag18
ag19
aI7959
aI9847
aI3326
aI707
aI6458
aI104439
aI6005
ag20
ag21
aI5106
aI8392
aI8333
aI7381
aI5994
ag22
aI6424
aI7509
ag23
aI6248
aI104334
aa(lp337
g25
aI0
aI0
aI0
aI0
aI0
aI0
aI0
aI0
aI0
aI0
aI0
aI0
aI0
aI0
aI0
aI0
aI0
aI0
aI0
aI0
aI0
aI0
aI0
aI0
aI0
aI0
aI0
aI0
aI0
aI0
aI0
aa(lp338
g27
aI1
aI0
aI0
aI-1
aI-2
aI0
aI-1
aI0
aI0
aI-2
aI-4
aI-1
aI2
aI0
aI-1
aI0
aI0
aI0
aI-1
aI-1
aI-2
aI0
aI1
aI1
aI1
aI0
aI2
aI0
aI0
aI-2
aI0
aa(lp339
g29
aI1
aI-2
aI0
aI-1
aI-3
aI0
aI-1
aI0
aI0
aI-2
aI-4
aI-2
aI3
aI-1
aI0
aI0
aI0
aI0
aI-1
aI-1
aI-2
aI0
aI1
aI0
aI0
aI0
aI2
aI0
aI0
aI-2
aI0
aa(lp340
g31
aI1
aI0
aI1
aI-2
aI-2
aI0
aI-1
aI0
aI0
aI-2
aI-2
aI-1
aI-1
aI2
aI-1
aI0
aI1
aI0
aI-1
aI-1
aI-2
aI0
aI0
aI1
aI1
aI-1
aI1
aI0
aI-1
aI-1
aI0
aa(lp341
g33
aI1
aI-1
aI1
aI-1
aI-3
aI0
aI-1
aI0
aI0
aI-2
aI-2
aI0
aI-1
aI2
aI-1
aI0
aI1
aI0
aI-1
aI-1
aI-2
aI0
aI0
aI0
aI1
aI-1
aI2
aI0
aI-1
aI-1
aI-1
aa(lp342
g35
aI-1
aI2
aI0
aI-4
aI0
aI-1
aI0
aI1
aI0
aI0
aI1
aI-2
aI-2
aI1
aI-2
aI0
aI-1
aI-1
aI2
aI0
aI1
aI0
aI0
aI0
aI-1
aI-2
aI0
aI2
aI1
aI0
aI-2
aa(lp343
g37
aI0
aI2
aI0
aI-3
aI1
aI-1
aI0
aI1
aI0
aI-1
aI2
aI0
aI-3
aI1
aI-2
aI0
aI0
aI0
aI2
aI0
aI-1
aI0
aI0
aI0
aI-1
aI-2
aI0
aI2
aI1
aI0
aI-2
aa(lp344
g39
aI0
aI0
aI0
aI-2
aI2
aI-1
aI0
aI1
aI0
aI0
aI2
aI1
aI-3
aI0
aI-2
aI0
aI-1
aI0
aI0
aI0
aI0
aI-1
aI0
aI0
aI-3
aI0
aI-2
aI-1
aI1
aI0
aI-4
aa(lp345
g41
aI0
aI-2
aI0
aI-2
aI2
aI-1
aI0
aI1
aI-1
aI0
aI2
aI-1
aI-1
aI0
aI-2
aI0
aI-1
aI0
aI1
aI-1
aI2
aI-1
aI0
aI-1
aI-1
aI-1
aI-1
aI-1
aI1
aI0
aI-4
aaa(lp346
(lp347
g14
aI1721
aI352
ag15
aI2868
aI8709
ag16
aI3866
ag17
aI9607
ag18
ag19
aI7959
aI9847
aI3326
aI707
aI6458
aI104439
aI6005
ag20
ag21
aI5106
aI8392
aI8333
aI7381
aI5994
ag22
aI6424
aI7509
ag23
aI6248
aI104334
aa(lp348
g25
aI0
aI0
aI0
aI0
aI0
aI0
aI0
aI0
aI0
aI0
aI0
aI0
aI0
aI0
aI0
aI0
aI0
aI0
aI0
aI-1
aI0
aI0
aI0
aI0
aI0
aI0
aI0
aI0
aI0
aI0
aI0
aa(lp349
g27
aI1
aI0
aI0
aI-1
aI-2
aI0
aI-1
aI0
aI0
aI-2
aI-4
aI-1
aI2
aI0
aI-1
aI0
aI0
aI0
aI-1
aI-1
aI-2
aI0
aI1
aI1
aI1
aI0
aI2
aI0
aI0
aI-2
aI0
aa(lp350
g29
aI1
aI-2
aI0
aI-1
aI-3
aI0
aI-1
aI0
aI0
aI-2
aI-4
aI-2
aI3
aI-1
aI0
aI0
aI0
aI0
aI-1
aI-1
aI-2
aI0
aI1
aI0
aI0
aI0
aI2
aI0
aI0
aI-2
aI0
aa(lp351
g31
aI1
aI0
aI1
aI-2
aI-2
aI0
aI-1
aI0
aI0
aI-2
aI-2
aI-1
aI-1
aI2
aI-1
aI0
aI1
aI0
aI-1
aI-1
aI-2
aI0
aI0
aI1
aI1
aI-1
aI1
aI0
aI-1
aI-1
aI0
aa(lp352
g33
aI1
aI-1
aI1
aI-1
aI-3
aI0
aI-1
aI0
aI0
aI-2
aI-2
aI0
aI-1
aI2
aI-1
aI0
aI1
aI0
aI-1
aI-1
aI-2
aI0
aI0
aI0
aI1
aI-1
aI2
aI0
aI-1
aI-1
aI-1
aa(lp353
g35
aI-1
aI2
aI0
aI-4
aI0
aI-1
aI0
aI1
aI0
aI0
aI1
aI-2
aI-2
aI1
aI-2
aI0
aI-1
aI-1
aI2
aI0
aI1
aI0
aI0
aI0
aI-1
aI-2
aI0
aI2
aI1
aI0
aI-2
aa(lp354
g37
aI0
aI2
aI0
aI-3
aI1
aI-1
aI0
aI1
aI0
aI-1
aI2
aI0
aI-3
aI1
aI-2
aI0
aI0
aI0
aI2
aI0
aI-1
aI0
aI0
aI0
aI-1
aI-2
aI0
aI2
aI1
aI0
aI-2
aa(lp355
g39
aI0
aI0
aI0
aI-2
aI2
aI-1
aI0
aI1
aI0
aI0
aI2
aI1
aI-3
aI0
aI-2
aI0
aI-1
aI0
aI0
aI0
aI0
aI-1
aI0
aI0
aI-3
aI0
aI-2
aI-1
aI1
aI0
aI-4
aa(lp356
g41
aI0
aI-2
aI0
aI-2
aI2
aI-1
aI0
aI1
aI-1
aI0
aI2
aI-1
aI-1
aI0
aI-2
aI0
aI-1
aI0
aI1
aI-1
aI2
aI-1
aI0
aI-1
aI-1
aI-1
aI-1
aI-1
aI1
aI0
aI-4
aaassg53
(lp357
(lp358
(lp359
g14
aI1721
aI352
ag15
aI2868
aI8709
ag16
aI3866
ag17
aI9607
ag18
ag19
aI7959
aI9847
aI3326
aI707
aI6458
aI104439
aI6005
ag20
ag21
aI5106
aI8392
aI8333
aI7381
aI5994
ag22
aI6424
aI7509
ag23
aI6248
aVHEXMUL
p360
aI104334
aa(lp361
g25
aI0
aI0
aI0
aI0
aI0
aI0
aI0
aI0
aI0
aI0
aI0
aI0
aI0
aI0
aI0
aI0
aI0
aI0
aI0
aI0
aI0
aI0
aI0
aI0
aI0
aI0
aI0
aI0
aI0
aI0
aI0
aI0
aa(lp362
g27
aI1
aI0
aI0
aI-1
aI-2
aI0
aI-1
aI0
aI0
aI-2
aI-4
aI-1
aI2
aI0
aI-1
aI0
aI0
aI0
aI-1
aI-1
aI-2
aI0
aI1
aI1
aI1
aI0
aI2
aI0
aI0
aI-2
aI0
aI0
aa(lp363
g29
aI1
aI-2
aI0
aI-1
aI-3
aI0
aI-1
aI0
aI0
aI-2
aI-4
aI-2
aI3
aI-1
aI0
aI0
aI0
aI0
aI-1
aI-1
aI-2
aI0
aI1
aI0
aI0
aI0
aI2
aI0
aI0
aI-2
aI0
aI0
aa(lp364
g31
aI1
aI0
aI1
aI-2
aI-2
aI0
aI-1
aI0
aI0
aI-2
aI-2
aI-1
aI-1
aI2
aI-1
aI0
aI1
aI0
aI-1
aI-1
aI-2
aI0
aI0
aI1
aI1
aI-1
aI1
aI0
aI-1
aI-1
aI0
aI0
aa(lp365
g33
aI1
aI-1
aI1
aI-1
aI-3
aI0
aI-1
aI0
aI0
aI-2
aI-2
aI0
aI-1
aI2
aI-1
aI0
aI1
aI0
aI-1
aI-1
aI-2
aI0
aI0
aI0
aI1
aI-1
aI2
aI0
aI-1
aI-1
aI0
aI-1
aa(lp366
g35
aI-1
aI2
aI0
aI-4
aI0
aI-1
aI0
aI1
aI0
aI0
aI1
aI-2
aI-2
aI1
aI-2
aI0
aI-1
aI-1
aI2
aI0
aI1
aI0
aI0
aI0
aI-1
aI-2
aI0
aI2
aI1
aI0
aI0
aI-2
aa(lp367
g37
aI0
aI2
aI0
aI-3
aI1
aI-1
aI0
aI1
aI0
aI-1
aI2
aI0
aI-3
aI1
aI-2
aI0
aI0
aI0
aI2
aI0
aI-1
aI0
aI0
aI0
aI-1
aI-2
aI0
aI2
aI1
aI0
aI0
aI-2
aa(lp368
g39
aI0
aI0
aI0
aI-2
aI2
aI-1
aI0
aI1
aI0
aI0
aI2
aI1
aI-3
aI0
aI-2
aI0
aI-1
aI0
aI0
aI0
aI0
aI-1
aI0
aI0
aI-3
aI0
aI-2
aI-1
aI1
aI0
ag64
aI-4
aa(lp369
g41
aI0
aI-2
aI0
aI-2
aI2
aI-1
aI0
aI1
aI-1
aI0
aI2
aI-1
aI-1
aI0
aI-2
aI0
aI-1
aI0
aI1
aI-1
aI2
aI-1
aI0
aI-1
aI-1
aI-1
aI-1
aI-1
aI1
aI0
aI0
aI-4
aaa(lp370
(lp371
g14
aI1721
aI352
ag15
aI2868
aI8709
ag16
aI3866
ag17
aI9607
ag18
ag19
aI7959
aI9847
aI3326
aI707
aI6458
aI104439
aI6005
ag20
ag21
aI5106
aI8392
aI8333
aI7381
aI5994
ag22
aI6424
aI7509
ag23
aI6248
aI104334
aa(lp372
g25
aI0
aI0
aI0
aI0
aI0
aI0
aI0
aI0
aI0
aI0
aI0
aI0
aI0
aI0
aI0
aI0
aI0
aI0
aI0
ag64
aI0
aI0
aI0
aI0
aI0
aI0
aI0
aI0
aI0
aI0
aI0
aa(lp373
g27
aI1
aI0
aI0
aI-1
aI-2
aI0
aI-1
aI0
aI0
aI-2
aI-4
aI-1
aI2
aI0
aI-1
aI0
aI0
aI0
aI-1
aI-1
aI-2
aI0
aI1
aI1
aI1
aI0
aI2
aI0
aI0
aI-2
aI0
aa(lp374
g29
aI1
aI-2
aI0
aI-1
aI-3
aI0
aI-1
aI0
aI0
aI-2
aI-4
aI-2
aI3
aI-1
aI0
aI0
aI0
aI0
aI-1
aI-1
aI-2
aI0
aI1
aI0
aI0
aI0
aI2
aI0
aI0
aI-2
aI0
aa(lp375
g31
aI1
aI0
aI1
aI-2
aI-2
aI0
aI-1
aI0
aI0
aI-2
aI-2
aI-1
aI-1
aI2
aI-1
aI0
aI1
aI0
aI-1
aI-1
aI-2
aI0
aI0
aI1
aI1
aI-1
aI1
aI0
aI-1
aI-1
aI0
aa(lp376
g33
aI1
aI-1
aI1
aI-1
aI-3
aI0
aI-1
aI0
aI0
aI-2
aI-2
aI0
aI-1
aI2
aI-1
aI0
aI1
aI0
aI-1
aI-1
aI-2
aI0
aI0
aI0
aI1
aI-1
aI2
aI0
aI-1
aI-1
aI-1
aa(lp377
g35
aI-1
aI2
aI0
aI-4
aI0
aI-1
aI0
aI1
aI0
aI0
aI1
aI-2
aI-2
aI1
aI-2
aI0
aI-1
aI-1
aI2
aI0
aI1
aI0
aI0
aI0
aI-1
aI-2
aI0
aI2
aI1
aI0
aI-2
aa(lp378
g37
aI0
aI2
aI0
aI-3
aI1
aI-1
aI0
aI1
aI0
aI-1
aI2
aI0
aI-3
aI1
aI-2
aI0
aI0
aI0
aI2
aI0
aI-1
aI0
aI0
aI0
aI-1
aI-2
aI0
aI2
aI1
aI0
aI-2
aa(lp379
g39
aI0
aI0
aI0
aI-2
aI2
aI-1
aI0
aI1
aI0
aI0
aI2
aI1
aI-3
aI0
aI-2
aI0
aI-1
aI0
aI0
aI0
aI0
aI-1
aI0
aI0
aI-3
aI0
aI-2
aI-1
aI1
aI0
aI-4
aa(lp380
g41
aI0
aI-2
aI0
aI-2
aI2
aI-1
aI0
aI1
aI-1
aI0
aI2
aI-1
aI-1
aI0
aI-2
aI0
aI-1
aI0
aI1
aI-1
aI2
aI-1
aI0
aI-1
aI-1
aI-1
aI-1
aI-1
aI1
aI0
aI-4
aaasS'linearregressionendswithcutoff_imputedtables'
p381
(dp382
g10
(lp383
(lp384
(lp385
g14
aI1721
aI352
ag15
aI2868
aI8709
ag16
aI3866
ag17
aI9607
ag18
ag19
aI7959
aI9847
aI3326
aI707
aI6458
aI104439
aI6005
ag20
ag21
aI5106
aI8392
aI8333
aI7381
aI5994
ag22
aI6424
aI7509
ag23
aI6248
aI104334
aa(lp386
g25
aI0
aI0
aI0
aI0
aI0
aI0
aI0
aI0
aI0
aI0
aI0
aI0
aI0
aI0
aI0
aI0
aI0
aI0
aI0
aI0
aI0
aI0
aI0
aI0
aI0
aI0
aI0
aI0
aI0
aI0
aI0
aa(lp387
g27
aI1
aI0
aI0
aI-1
aI-2
aI0
aI-1
aI0
aI0
aI-2
aI-4
aI-1
aI2
aI0
aI-1
aI0
aI0
aI0
aI-1
aI-1
aI-2
aI0
aI1
aI1
aI1
aI0
aI2
aI0
aI0
aI-2
aI0
aa(lp388
g29
aI1
aI-2
aI0
aI-1
aI-3
aI0
aI-1
aI0
aI0
aI-2
aI-4
aI-2
aI3
aI-1
aI0
aI0
aI0
aI0
aI-1
aI-1
aI-2
aI0
aI1
aI0
aI0
aI0
aI2
aI0
aI0
aI-2
aI0
aa(lp389
g31
aI1
aI0
aI1
aI-2
aI-2
aI0
aI-1
aI0
aI0
aI-2
aI-2
aI-1
aI-1
aI2
aI-1
aI0
aI1
aI0
aI-1
aI-1
aI-2
aI0
aI0
aI1
aI1
aI-1
aI1
aI0
aI-1
aI-1
aI0
aa(lp390
g33
aI1
aI-1
aI1
aI-1
aI-3
aI0
aI-1
aI0
aI0
aI-2
aI-2
aI0
aI-1
aI2
aI-1
aI0
aI1
aI0
aI-1
aI-1
aI-2
aI0
aI0
aI0
aI1
aI-1
aI2
aI0
aI-1
aI-1
aI-1
aa(lp391
g35
aI-1
aI2
aI0
aI-4
aI0
aI-1
aI0
aI1
aI0
aI0
aI1
aI-2
aI-2
aI1
aI-2
aI0
aI-1
aI-1
aI2
aI0
aI1
aI0
aI0
aI0
aI-1
aI-2
aI0
aI2
aI1
aI0
aI-2
aa(lp392
g37
aI0
aI2
aI0
aI-3
aI1
aI-1
aI0
aI1
aI0
aI-1
aI2
aI0
aI-3
aI1
aI-2
aI0
aI0
aI0
aI2
aI0
aI-1
aI0
aI0
aI0
aI-1
aI-2
aI0
aI2
aI1
aI0
aI-2
aa(lp393
g39
aI0
aI0
aI0
aI-2
aI2
aI-1
aI0
aI1
aI0
aI0
aI2
aI1
aI-3
aI0
aI-2
aI0
aI-1
aI0
aI0
aI0
aI0
aI-1
aI0
aI0
aI-3
aI0
aI-2
aI-1
aI1
aI0
aI-4
aa(lp394
g41
aI0
aI-2
aI0
aI-2
aI2
aI-1
aI0
aI1
aI-1
aI0
aI2
aI-1
aI-1
aI0
aI-2
aI0
aI-1
aI0
aI1
aI-1
aI2
aI-1
aI0
aI-1
aI-1
aI-1
aI-1
aI-1
aI1
aI0
aI-4
aaa(lp395
(lp396
g14
aI1721
aI352
ag15
aI2868
aI8709
ag16
aI3866
ag17
aI9607
ag18
ag19
aI7959
aI9847
aI3326
aI707
aI6458
aI104439
aI6005
ag20
ag21
aI5106
aI8392
aI8333
aI7381
aI5994
ag22
aI6424
aI7509
ag23
aI6248
aI104334
aa(lp397
g25
aI0
aI0
aI0
aI0
aI0
aI0
aI0
aI0
aI0
aI0
aI0
aI0
aI0
aI0
aI0
aI0
aI0
aI0
aI0
aI-1
aI0
aI0
aI0
aI0
aI0
aI0
aI0
aI0
aI0
aI0
aI0
aa(lp398
g27
aI1
aI0
aI0
aI-1
aI-2
aI0
aI-1
aI0
aI0
aI-2
aI-4
aI-1
aI2
aI0
aI-1
aI0
aI0
aI0
aI-1
aI-1
aI-2
aI0
aI1
aI1
aI1
aI0
aI2
aI0
aI0
aI-2
aI0
aa(lp399
g29
aI1
aI-2
aI0
aI-1
aI-3
aI0
aI-1
aI0
aI0
aI-2
aI-4
aI-2
aI3
aI-1
aI0
aI0
aI0
aI0
aI-1
aI-1
aI-2
aI0
aI1
aI0
aI0
aI0
aI2
aI0
aI0
aI-2
aI0
aa(lp400
g31
aI1
aI0
aI1
aI-2
aI-2
aI0
aI-1
aI0
aI0
aI-2
aI-2
aI-1
aI-1
aI2
aI-1
aI0
aI1
aI0
aI-1
aI-1
aI-2
aI0
aI0
aI1
aI1
aI-1
aI1
aI0
aI-1
aI-1
aI0
aa(lp401
g33
aI1
aI-1
aI1
aI-1
aI-3
aI0
aI-1
aI0
aI0
aI-2
aI-2
aI0
aI-1
aI2
aI-1
aI0
aI1
aI0
aI-1
aI-1
aI-2
aI0
aI0
aI0
aI1
aI-1
aI2
aI0
aI-1
aI-1
aI-1
aa(lp402
g35
aI-1
aI2
aI0
aI-4
aI0
aI-1
aI0
aI1
aI0
aI0
aI1
aI-2
aI-2
aI1
aI-2
aI0
aI-1
aI-1
aI2
aI0
aI1
aI0
aI0
aI0
aI-1
aI-2
aI0
aI2
aI1
aI0
aI-2
aa(lp403
g37
aI0
aI2
aI0
aI-3
aI1
aI-1
aI0
aI1
aI0
aI-1
aI2
aI0
aI-3
aI1
aI-2
aI0
aI0
aI0
aI2
aI0
aI-1
aI0
aI0
aI0
aI-1
aI-2
aI0
aI2
aI1
aI0
aI-2
aa(lp404
g39
aI0
aI0
aI0
aI-2
aI2
aI-1
aI0
aI1
aI0
aI0
aI2
aI1
aI-3
aI0
aI-2
aI0
aI-1
aI0
aI0
aI0
aI0
aI-1
aI0
aI0
aI-3
aI0
aI-2
aI-1
aI1
aI0
aI-4
aa(lp405
g41
aI0
aI-2
aI0
aI-2
aI2
aI-1
aI0
aI1
aI-1
aI0
aI2
aI-1
aI-1
aI0
aI-2
aI0
aI-1
aI0
aI1
aI-1
aI2
aI-1
aI0
aI-1
aI-1
aI-1
aI-1
aI-1
aI1
aI0
aI-4
aaassS'Fitchforimputation_imputedtables'
p406
(dp407
g10
(lp408
(lp409
(lp410
g14
aI1721
aI352
ag15
aI2868
aI8709
ag16
aI3866
ag17
aI9607
ag18
ag19
aI7959
aI9847
aI3326
aI707
aI6458
aI104439
aI6005
ag20
ag21
aI5106
aI8392
aI8333
aI7381
aI5994
ag22
aI6424
aI7509
ag23
aI6248
aI104334
aa(lp411
g25
aI0
aI0
aI0
aI0
aI0
aI0
aI0
aI0
aI0
aI0
aI0
aI0
aI0
aI0
aI0
aI0
aI0
aI0
aI0
aI0
aI0
aI0
aI0
aI0
aI0
aI0
aI0
aI0
aI0
aI0
aI0
aa(lp412
g27
aI1
aI0
aI0
aI-1
aI-2
aI0
aI-1
aI0
aI0
aI-2
aI-4
aI-1
aI2
aI0
aI-1
aI0
aI0
aI0
aI-1
aI-1
aI-2
aI0
aI1
aI1
aI1
aI0
aI2
aI0
aI0
aI-2
aI0
aa(lp413
g29
aI1
aI-2
aI0
aI-1
aI-3
aI0
aI-1
aI0
aI0
aI-2
aI-4
aI-2
aI3
aI-1
aI0
aI0
aI0
aI0
aI-1
aI-1
aI-2
aI0
aI1
aI0
aI0
aI0
aI2
aI0
aI0
aI-2
aI0
aa(lp414
g31
aI1
aI0
aI1
aI-2
aI-2
aI0
aI-1
aI0
aI0
aI-2
aI-2
aI-1
aI-1
aI2
aI-1
aI0
aI1
aI0
aI-1
aI-1
aI-2
aI0
aI0
aI1
aI1
aI-1
aI1
aI0
aI-1
aI-1
aI0
aa(lp415
g33
aI1
aI-1
aI1
aI-1
aI-3
aI0
aI-1
aI0
aI0
aI-2
aI-2
aI0
aI-1
aI2
aI-1
aI0
aI1
aI0
aI-1
aI-1
aI-2
aI0
aI0
aI0
aI1
aI-1
aI2
aI0
aI-1
aI-1
aI-1
aa(lp416
g35
aI-1
aI2
aI0
aI-4
aI0
aI-1
aI0
aI1
aI0
aI0
aI1
aI-2
aI-2
aI1
aI-2
aI0
aI-1
aI-1
aI2
aI0
aI1
aI0
aI0
aI0
aI-1
aI-2
aI0
aI2
aI1
aI0
aI-2
aa(lp417
g37
aI0
aI2
aI0
aI-3
aI1
aI-1
aI0
aI1
aI0
aI-1
aI2
aI0
aI-3
aI1
aI-2
aI0
aI0
aI0
aI2
aI0
aI-1
aI0
aI0
aI0
aI-1
aI-2
aI0
aI2
aI1
aI0
aI-2
aa(lp418
g39
aI0
aI0
aI0
aI-2
aI2
aI-1
aI0
aI1
aI0
aI0
aI2
aI1
aI-3
aI0
aI-2
aI0
aI-1
aI0
aI0
aI0
aI0
aI-1
aI0
aI0
aI-3
aI0
aI-2
aI-1
aI1
aI0
aI-4
aa(lp419
g41
aI0
aI-2
aI0
aI-2
aI2
aI-1
aI0
aI1
aI-1
aI0
aI2
aI-1
aI-1
aI0
aI-2
aI0
aI-1
aI0
aI1
aI-1
aI2
aI-1
aI0
aI-1
aI-1
aI-1
aI-1
aI-1
aI1
aI0
aI-4
aaa(lp420
(lp421
g14
aI1721
aI352
ag15
aI2868
aI8709
ag16
aI3866
ag17
aI9607
ag18
ag19
aI7959
aI9847
aI3326
aI707
aI6458
aI104439
aI6005
ag20
ag21
aI5106
aI8392
aI8333
aI7381
aI5994
ag22
aI6424
aI7509
ag23
aI6248
aI104334
aa(lp422
g25
aI0
aI0
aI0
aI0
aI0
aI0
aI0
aI0
aI0
aI0
aI0
aI0
aI0
aI0
aI0
aI0
aI0
aI0
aI0
aI0
aI0
aI0
aI0
aI0
aI0
aI0
aI0
aI0
aI0
aI0
aI0
aa(lp423
g27
aI1
aI0
aI0
aI-1
aI-2
aI0
aI-1
aI0
aI0
aI-2
aI-4
aI-1
aI2
aI0
aI-1
aI0
aI0
aI0
aI-1
aI-1
aI-2
aI0
aI1
aI1
aI1
aI0
aI2
aI0
aI0
aI-2
aI0
aa(lp424
g29
aI1
aI-2
aI0
aI-1
aI-3
aI0
aI-1
aI0
aI0
aI-2
aI-4
aI-2
aI3
aI-1
aI0
aI0
aI0
aI0
aI-1
aI-1
aI-2
aI0
aI1
aI0
aI0
aI0
aI2
aI0
aI0
aI-2
aI0
aa(lp425
g31
aI1
aI0
aI1
aI-2
aI-2
aI0
aI-1
aI0
aI0
aI-2
aI-2
aI-1
aI-1
aI2
aI-1
aI0
aI1
aI0
aI-1
aI-1
aI-2
aI0
aI0
aI1
aI1
aI-1
aI1
aI0
aI-1
aI-1
aI0
aa(lp426
g33
aI1
aI-1
aI1
aI-1
aI-3
aI0
aI-1
aI0
aI0
aI-2
aI-2
aI0
aI-1
aI2
aI-1
aI0
aI1
aI0
aI-1
aI-1
aI-2
aI0
aI0
aI0
aI1
aI-1
aI2
aI0
aI-1
aI-1
aI-1
aa(lp427
g35
aI-1
aI2
aI0
aI-4
aI0
aI-1
aI0
aI1
aI0
aI0
aI1
aI-2
aI-2
aI1
aI-2
aI0
aI-1
aI-1
aI2
aI0
aI1
aI0
aI0
aI0
aI-1
aI-2
aI0
aI2
aI1
aI0
aI-2
aa(lp428
g37
aI0
aI2
aI0
aI-3
aI1
aI-1
aI0
aI1
aI0
aI-1
aI2
aI0
aI-3
aI1
aI-2
aI0
aI0
aI0
aI2
aI0
aI-1
aI0
aI0
aI0
aI-1
aI-2
aI0
aI2
aI1
aI0
aI-2
aa(lp429
g39
aI0
aI0
aI0
aI-2
aI2
aI-1
aI0
aI1
aI0
aI0
aI2
aI1
aI-3
aI0
aI-2
aI0
aI-1
aI0
aI0
aI0
aI0
aI-1
aI0
aI0
aI-3
aI0
aI-2
aI-1
aI1
aI0
aI-4
aa(lp430
g41
aI0
aI-2
aI0
aI-2
aI2
aI-1
aI0
aI1
aI-1
aI0
aI2
aI-1
aI-1
aI0
aI-2
aI0
aI-1
aI0
aI1
aI-1
aI2
aI-1
aI0
aI-1
aI-1
aI-1
aI-1
aI-1
aI1
aI0
aI-4
aaassssS'originaltable'
p431
(lp432
(lp433
g14
aI1721
aI352
ag15
aI2868
aI8709
ag16
aI3866
ag17
aI9607
ag18
ag19
aI7959
aI9847
aI3326
aI707
aI6458
aI104439
aI6005
ag20
ag21
aI5106
aI8392
aI8333
aI7381
aI5994
ag22
aI6424
aI7509
ag23
aI6248
aI104334
aa(lp434
g25
aI0
aI0
aI0
aI0
aI0
aI0
aI0
aI0
aI0
aI0
aI0
aI0
aI0
aI0
aI0
aI0
aI0
aI0
aI0
aI0
aI0
aI0
aI0
aI0
aI0
aI0
aI0
aI0
aI0
aI0
aI0
aa(lp435
g27
aI1
aI0
aI0
aI-1
aI-2
aI0
aI-1
aI0
aI0
aI-2
aI-4
aI-1
aI2
aI0
aI-1
aI0
aI0
aI0
aI-1
aI-1
aI-2
aI0
aI1
aI1
aI1
aI0
aI2
aI0
aI0
aI-2
aI0
aa(lp436
g29
aI1
aI-2
aI0
aI-1
aI-3
aI0
aI-1
aI0
aI0
aI-2
aI-4
aI-2
aI3
aI-1
aI0
aI0
aI0
aI0
aI-1
aI-1
aI-2
aI0
aI1
aI0
aI0
aI0
aI2
aI0
aI0
aI-2
aI0
aa(lp437
g31
aI1
aI0
aI1
aI-2
aI-2
aI0
aI-1
aI0
aI0
aI-2
aI-2
aI-1
aI-1
aI2
aI-1
aI0
aI1
aI0
aI-1
aI-1
aI-2
aI0
aI0
aI1
aI1
aI-1
aI1
aI0
aI-1
aI-1
aI0
aa(lp438
g33
aI1
aI-1
aI1
aI-1
aI-3
aI0
aI-1
aI0
aI0
aI-2
aI-2
aI0
aI-1
aI2
aI-1
aI0
aI1
aI0
aI-1
aI-1
aI-2
aI0
aI0
aI0
aI1
aI-1
aI2
aI0
aI-1
aI-1
aI-1
aa(lp439
g35
aI-1
aI2
aI0
aI-4
aI0
aI-1
aI0
aI1
aI0
aI0
aI1
aI-2
aI-2
aI1
aI-2
aI0
aI-1
aI-1
aI2
aI0
aI1
aI0
aI0
aI0
aI-1
aI-2
aI0
aI2
aI1
aI0
aI-2
aa(lp440
g37
aI0
aI2
aI0
aI-3
aI1
aI-1
aI0
aI1
aI0
aI-1
aI2
aI0
aI-3
aI1
aI-2
aI0
aI0
aI0
aI2
aI0
aI-1
aI0
aI0
aI0
aI-1
aI-2
aI0
aI2
aI1
aI0
aI-2
aa(lp441
g39
aI0
aI0
aI0
aI-2
aI2
aI-1
aI0
aI1
aI0
aI0
aI2
aI1
aI-3
aI0
aI-2
aI0
aI-1
aI0
aI0
aI0
aI0
aI-1
aI0
aI0
aI-3
aI0
aI-2
aI-1
aI1
aI0
aI-4
aa(lp442
g41
aI0
aI-2
aI0
aI-2
aI2
aI-1
aI0
aI1
aI-1
aI0
aI2
aI-1
aI-1
aI0
aI-2
aI0
aI-1
aI0
aI1
aI-1
aI2
aI-1
aI0
aI-1
aI-1
aI-1
aI-1
aI-1
aI1
aI0
aI-4
aassS'anytablehasmissingentries'
p443
I01
s.(dp0
S'data_for_tables2a'
p1
(dp2
S'missingentriestablesdata_madeby_rauvfmlbiaroc'
p3
(dp4
S'tableswith 2 missingentries'
p5
(dp6
S'onennimputationuniform_imputedtables'
p7
(dp8
S'weights'
p9
(lp10
(lp11
I1
aI1
aI1
aI1
aI1
aI3
aI2
aI2
aI1
aI1
aI1
aI1
aI1
aI1
aI1
aI3
aI1
aI1
aI1
aI1
aI1
aI1
aI1
aI1
aI1
aI1
aI1
aI1
aI1
aI1
aI1
aa(lp12
I1
aI1
aI1
aI1
aI1
aI3
aI2
aI2
aI1
aI1
aI1
aI1
aI1
aI1
aI1
aI3
aI1
aI1
aI1
aI1
aI1
aI1
aI1
aI1
aI1
aI1
aI1
aI1
aI1
aI1
aI1
aassg9
(lp13
(lp14
I1
aI1
aI1
aI1
aI1
aI2
aI2
aI2
aI1
aI1
aI1
aI1
aI1
aI1
aI1
aI3
aI1
aI1
aI1
aI1
aI1
aI1
aI1
aI1
aI1
aI1
aI1
aI1
aI1
aI1
aI1
aI1
aa(lp15
I1
aI1
aI1
aI1
aI1
aI3
aI2
aI2
aI1
aI1
aI1
aI1
aI1
aI1
aI1
aI3
aI1
aI1
aI1
aI1
aI1
aI1
aI1
aI1
aI1
aI1
aI1
aI1
aI1
aI1
aI1
aasS'linearregressionendswithcutoff_imputedtables'
p16
(dp17
g9
(lp18
(lp19
I1
aI1
aI1
aI1
aI1
aI2
aI2
aI2
aI1
aI1
aI1
aI1
aI1
aI1
aI1
aI3
aI1
aI1
aI1
aI1
aI1
aI1
aI1
aI1
aI1
aI1
aI1
aI1
aI1
aI1
aI1
aI1
aa(lp20
I1
aI1
aI1
aI1
aI1
aI3
aI2
aI2
aI1
aI1
aI1
aI1
aI1
aI1
aI1
aI3
aI1
aI1
aI1
aI1
aI1
aI1
aI1
aI1
aI1
aI1
aI1
aI1
aI1
aI1
aI1
aassS'Fitchforimputation_imputedtables'
p21
(dp22
g9
(lp23
(lp24
I1
aI1
aI1
aI1
aI1
aI3
aI2
aI2
aI1
aI1
aI1
aI1
aI1
aI1
aI1
aI3
aI1
aI1
aI1
aI1
aI1
aI1
aI1
aI1
aI1
aI1
aI1
aI1
aI1
aI1
aI1
aa(lp25
I1
aI1
aI1
aI1
aI1
aI3
aI2
aI2
aI1
aI1
aI1
aI1
aI1
aI1
aI1
aI3
aI1
aI1
aI1
aI1
aI1
aI1
aI1
aI1
aI1
aI1
aI1
aI1
aI1
aI1
aI1
aasssS'tableswith 1 missingentries'
p26
(dp27
S'onennimputationuniform_imputedtables'
p28
(dp29
g9
(lp30
(lp31
I1
aI1
aI1
aI1
aI1
aI3
aI2
aI2
aI1
aI1
aI1
aI1
aI1
aI1
aI1
aI3
aI1
aI1
aI1
aI1
aI1
aI1
aI1
aI1
aI1
aI1
aI1
aI1
aI1
aI1
aI1
aa(lp32
I1
aI1
aI1
aI1
aI1
aI3
aI2
aI2
aI1
aI1
aI1
aI1
aI1
aI1
aI1
aI3
aI1
aI1
aI1
aI1
aI1
aI1
aI1
aI1
aI1
aI1
aI1
aI1
aI1
aI1
aI1
aassg9
(lp33
(lp34
I1
aI1
aI1
aI1
aI1
aI1
aI2
aI2
aI2
aI1
aI1
aI1
aI1
aI1
aI1
aI1
aI3
aI1
aI1
aI1
aI1
aI1
aI1
aI1
aI1
aI1
aI1
aI1
aI1
aI1
aI1
aI1
aa(lp35
I1
aI1
aI1
aI1
aI1
aI3
aI1
aI2
aI1
aI1
aI1
aI1
aI1
aI1
aI1
aI3
aI1
aI1
aI1
aI1
aI1
aI1
aI1
aI1
aI1
aI1
aI1
aI1
aI1
aI1
aI1
aI1
aasS'linearregressionendswithcutoff_imputedtables'
p36
(dp37
g9
(lp38
(lp39
I1
aI1
aI1
aI1
aI1
aI1
aI2
aI2
aI2
aI1
aI1
aI1
aI1
aI1
aI1
aI1
aI3
aI1
aI1
aI1
aI1
aI1
aI1
aI1
aI1
aI1
aI1
aI1
aI1
aI1
aI1
aI1
aa(lp40
I1
aI1
aI1
aI1
aI1
aI3
aI1
aI2
aI1
aI1
aI1
aI1
aI1
aI1
aI1
aI3
aI1
aI1
aI1
aI1
aI1
aI1
aI1
aI1
aI1
aI1
aI1
aI1
aI1
aI1
aI1
aI1
aassS'Fitchforimputation_imputedtables'
p41
(dp42
g9
(lp43
(lp44
I1
aI1
aI1
aI1
aI1
aI3
aI2
aI2
aI1
aI1
aI1
aI1
aI1
aI1
aI1
aI3
aI1
aI1
aI1
aI1
aI1
aI1
aI1
aI1
aI1
aI1
aI1
aI1
aI1
aI1
aI1
aa(lp45
I1
aI1
aI1
aI1
aI1
aI3
aI2
aI2
aI1
aI1
aI1
aI1
aI1
aI1
aI1
aI3
aI1
aI1
aI1
aI1
aI1
aI1
aI1
aI1
aI1
aI1
aI1
aI1
aI1
aI1
aI1
aassssS'missingentriestablesdata_madeby_rauvfm'
p46
(dp47
S'tableswith 2 missingentries'
p48
(dp49
S'onennimputationuniform_imputedtables'
p50
(dp51
g9
(lp52
(lp53
I1
aI1
aI1
aI1
aI1
aI3
aI2
aI2
aI1
aI1
aI1
aI1
aI1
aI1
aI1
aI3
aI1
aI1
aI1
aI1
aI1
aI1
aI1
aI1
aI1
aI1
aI1
aI1
aI1
aI1
aI1
aa(lp54
I1
aI1
aI1
aI1
aI1
aI3
aI2
aI2
aI1
aI1
aI1
aI1
aI1
aI1
aI1
aI3
aI1
aI1
aI1
aI1
aI1
aI1
aI1
aI1
aI1
aI1
aI1
aI1
aI1
aI1
aI1
aassg9
(lp55
(lp56
I1
aI1
aI1
aI1
aI1
aI3
aI2
aI2
aI1
aI1
aI1
aI1
aI1
aI1
aI1
aI3
aI1
aI1
aI1
aI1
aI1
aI1
aI1
aI1
aI1
aI1
aI1
aI1
aI1
aI1
aI1
aa(lp57
I1
aI1
aI1
aI1
aI1
aI3
aI2
aI2
aI1
aI1
aI1
aI1
aI1
aI1
aI1
aI3
aI1
aI1
aI1
aI1
aI1
aI1
aI1
aI1
aI1
aI1
aI1
aI1
aI1
aI1
aI1
aasS'linearregressionendswithcutoff_imputedtables'
p58
(dp59
g9
(lp60
(lp61
I1
aI1
aI1
aI1
aI1
aI3
aI2
aI2
aI1
aI1
aI1
aI1
aI1
aI1
aI1
aI3
aI1
aI1
aI1
aI1
aI1
aI1
aI1
aI1
aI1
aI1
aI1
aI1
aI1
aI1
aI1
aa(lp62
I1
aI1
aI1
aI1
aI1
aI3
aI2
aI2
aI1
aI1
aI1
aI1
aI1
aI1
aI1
aI3
aI1
aI1
aI1
aI1
aI1
aI1
aI1
aI1
aI1
aI1
aI1
aI1
aI1
aI1
aI1
aassS'Fitchforimputation_imputedtables'
p63
(dp64
g9
(lp65
(lp66
I1
aI1
aI1
aI1
aI1
aI3
aI2
aI2
aI1
aI1
aI1
aI1
aI1
aI1
aI1
aI3
aI1
aI1
aI1
aI1
aI1
aI1
aI1
aI1
aI1
aI1
aI1
aI1
aI1
aI1
aI1
aa(lp67
I1
aI1
aI1
aI1
aI1
aI3
aI2
aI2
aI1
aI1
aI1
aI1
aI1
aI1
aI1
aI3
aI1
aI1
aI1
aI1
aI1
aI1
aI1
aI1
aI1
aI1
aI1
aI1
aI1
aI1
aI1
aasssS'tableswith 1 missingentries'
p68
(dp69
S'onennimputationuniform_imputedtables'
p70
(dp71
g9
(lp72
(lp73
I1
aI1
aI1
aI1
aI1
aI3
aI2
aI2
aI1
aI1
aI1
aI1
aI1
aI1
aI1
aI3
aI1
aI1
aI1
aI1
aI1
aI1
aI1
aI1
aI1
aI1
aI1
aI1
aI1
aI1
aI1
aa(lp74
I1
aI1
aI1
aI1
aI1
aI3
aI2
aI2
aI1
aI1
aI1
aI1
aI1
aI1
aI1
aI3
aI1
aI1
aI1
aI1
aI1
aI1
aI1
aI1
aI1
aI1
aI1
aI1
aI1
aI1
aI1
aassg9
(lp75
(lp76
I1
aI1
aI1
aI1
aI1
aI3
aI2
aI2
aI1
aI1
aI1
aI1
aI1
aI1
aI1
aI2
aI1
aI1
aI1
aI1
aI1
aI1
aI1
aI1
aI1
aI1
aI1
aI1
aI1
aI1
aI1
aI1
aa(lp77
I1
aI1
aI1
aI1
aI1
aI3
aI2
aI2
aI1
aI1
aI1
aI1
aI1
aI1
aI1
aI3
aI1
aI1
aI1
aI1
aI1
aI1
aI1
aI1
aI1
aI1
aI1
aI1
aI1
aI1
aI1
aasS'linearregressionendswithcutoff_imputedtables'
p78
(dp79
g9
(lp80
(lp81
I1
aI1
aI1
aI1
aI1
aI3
aI2
aI2
aI1
aI1
aI1
aI1
aI1
aI1
aI1
aI3
aI1
aI1
aI1
aI1
aI1
aI1
aI1
aI1
aI1
aI1
aI1
aI1
aI1
aI1
aI1
aa(lp82
I1
aI1
aI1
aI1
aI1
aI3
aI2
aI2
aI1
aI1
aI1
aI1
aI1
aI1
aI1
aI3
aI1
aI1
aI1
aI1
aI1
aI1
aI1
aI1
aI1
aI1
aI1
aI1
aI1
aI1
aI1
aassS'Fitchforimputation_imputedtables'
p83
(dp84
g9
(lp85
(lp86
I1
aI1
aI1
aI1
aI1
aI3
aI2
aI2
aI1
aI1
aI1
aI1
aI1
aI1
aI1
aI3
aI1
aI1
aI1
aI1
aI1
aI1
aI1
aI1
aI1
aI1
aI1
aI1
aI1
aI1
aI1
aa(lp87
I1
aI1
aI1
aI1
aI1
aI3
aI2
aI2
aI1
aI1
aI1
aI1
aI1
aI1
aI1
aI3
aI1
aI1
aI1
aI1
aI1
aI1
aI1
aI1
aI1
aI1
aI1
aI1
aI1
aI1
aI1
aassssg9
(lp88
I1
aI1
aI1
aI1
aI1
aI3
aI2
aI2
aI1
aI1
aI1
aI1
aI1
aI1
aI1
aI3
aI1
aI1
aI1
aI1
aI1
aI1
aI1
aI1
aI1
aI1
aI1
aI1
aI1
aI1
aI1
ass.