(dp0
S'excelsheetname'
p1
(lp2
S'tables2a'
p3
asS'onlyuniquecellsintree'
p4
(lp5
I01
asS'nameonlytree'
p6
(lp7
ccopy_reg
_reconstructor
p8
(cnetworkx.classes.graph
Graph
p9
c__builtin__
object
p10
Ntp11
Rp12
(dp13
S'node'
p14
(dp15
sS'graph'
p16
(dp17
sS'edge'
p18
(dp19
sS'adj'
p20
g19
sbasS'nameonlytreefilename'
p21
(lp22
NasS'dataonlytreefilename'
p23
(lp24
sS'newicktree'
p25
(lp26
S'None'
p27
asS'datatonamemaping'
p28
(lp29
(dp30
asS'excelname'
p31
(lp32
S'Frumkin2005_processedandreformateddata_Sun Aug 14 2016/init_datasets/data_for_tables2a/preprocessMSdataproperlyformateddatafortables2a.xlsx'
p33
asS'nameanddatatreefilename'
p34
(lp35
NasS'compressedtreedata'
p36
(dp37
g6
(lp38
Nasg21
(lp39
Nasg23
(lp40
Nasg25
(lp41
Nasg28
(lp42
Nasg34
(lp43
NasS'newicktreefilename'
p44
(lp45
NasS'nameanddatatree'
p46
(lp47
NasS'dataonlytree'
p48
(lp49
NassS'datadir'
p50
S'Frumkin2005_processedandreformateddata_Sun Aug 14 2016/'
p51
sS'workdir'
p52
S'Frumkin2005_processedandreformateddata_Sun Aug 14 2016/init_datasets/'
p53
sS'treefolders'
p54
(lp55
S'Frumkin2005_processedandreformateddata_Sun Aug 14 2016/init_datasets/data_for_tables2a/'
p56
asg44
(lp57
Nasg46
(lp58
g8
(g9
g10
Ntp59
Rp60
(dp61
g14
(dp62
sg16
(dp63
sg18
(dp64
sg20
g64
sbasS'readmename'
p65
S'Frumkin2005_processedandreformateddata_Sun Aug 14 2016/init_datasets/README.txt'
p66
sg48
(lp67
g8
(g9
g10
Ntp68
Rp69
(dp70
g14
(dp71
sg16
(dp72
sg18
(dp73
sg20
g73
sbas.