(dp0
S'data_for_tables2a'
p1
(dp2
S'missingentriestablesdata_madeby_rauvfmlbiaroc'
p3
(dp4
S'tableswith 2 missingentries'
p5
(dp6
S'onennimputationuniform_imputedtables'
p7
(dp8
S'data'
p9
(lp10
(lp11
S'Tree'
p12
aS'1'
p13
aS'2'
p14
aa(lp15
S'Tree_taxa'
p16
aS'9'
p17
ag17
aa(lp18
S'RefTree_taxa'
p19
ag17
ag17
aa(lp20
S'Common_taxa'
p21
ag17
ag17
aa(lp22
S'R-F'
p23
aS'0.0000'
p24
aS'0.0000'
p25
aa(lp26
S'R-F_toYuleAvg'
p27
aS'0.0000'
p28
aS'0.0000'
p29
aa(lp30
S'R-F_toUnifAvg'
p31
aS'0.0000'
p32
aS'0.0000'
p33
aa(lp34
S'MatchingSplit'
p35
aS'0.0000'
p36
aS'0.0000'
p37
aa(lp38
S'MatchingSplit_toYuleAvg'
p39
aS'0.0000'
p40
aS'0.0000'
p41
aa(lp42
S'MatchingSplit_toUnifAvg'
p43
aS'0.0000'
p44
aS'0.0000'
p45
aa(lp46
S'PathDiffernce'
p47
aS'0.0000'
p48
aS'0.0000'
p49
aa(lp50
S'PathDiffernce_toYuleAvg'
p51
aS'0.0000'
p52
aS'0.0000'
p53
aa(lp54
S'PathDiffernce_toUnifAvg'
p55
aS'0.0000'
p56
aS'0.0000'
p57
aa(lp58
S'Quartet'
p59
aS'0.0000'
p60
aS'0.0000'
p61
aa(lp62
S'Quartet_toYuleAvg'
p63
aS'0.0000'
p64
aS'0.0000'
p65
aa(lp66
S'Quartet_toUnifAvg'
p67
aS'0.0000'
p68
aS'0.0000'
p69
aasS'trees'
p70
(lp71
ccopy_reg
_reconstructor
p72
(cnetworkx.classes.graph
Graph
p73
c__builtin__
object
p74
Ntp75
Rp76
(dp77
S'node'
p78
(dp79
VA2a2
p80
(dp81
S'possiblevalue'
p82
(dp83
sS'value'
p84
S'X'
p85
ssVA2a1
p86
(dp87
g82
(dp88
sg84
g85
ssVA2b2
p89
(dp90
g82
(dp91
sg84
g85
ssVA2b1
p92
(dp93
g82
(dp94
sg84
g85
ssVA2b1-A2b2
p95
(dp96
g82
(dp97
sg84
g85
ssVA1b1-A1b2
p98
(dp99
g82
(dp100
sg84
g85
ssVA1b2
p101
(dp102
g82
(dp103
sg84
g85
ssVA1a1-A1a2
p104
(dp105
g82
(dp106
sg84
g85
ssVA1a1
p107
(dp108
g82
(dp109
sg84
g85
ssVA1a2
p110
(dp111
g82
(dp112
sg84
g85
ssVRoot-A1a1-A1a2-A1b1-A1b2
p113
(dp114
g82
(dp115
sg84
g85
ssVA2a1-A2a2
p116
(dp117
g82
(dp118
sg84
g85
ssVA1b1
p119
(dp120
g82
(dp121
sg84
g85
ssVRoot-A1a1-A1a2-A1b1-A1b2-A2a1-A2a2
p122
(dp123
g82
(dp124
sg84
g85
ssVRoot
p125
(dp126
g82
(dp127
sg84
g85
ssVA2b1-A2b2-Root-A1a1-A1a2-A1b1-A1b2-A2a1-A2a2
p128
(dp129
g82
(dp130
sg84
g85
ssVA1a1-A1a2-A1b1-A1b2
p131
(dp132
g82
(dp133
sg84
g85
sssS'graph'
p134
(dp135
sS'edge'
p136
(dp137
g80
(dp138
g116
(dp139
S'weight'
p140
I4
sssg86
(dp141
g116
(dp142
g140
I7
sssg89
(dp143
g95
(dp144
g140
I8
sssg92
(dp145
g95
(dp146
g140
I7
sssg95
(dp147
g128
(dp148
g140
I5
ssg89
g144
sg92
g146
ssg98
(dp149
g119
(dp150
g140
I3
ssg101
(dp151
g140
I4
ssg131
(dp152
g140
I3
sssg101
(dp153
g98
g151
ssg104
(dp154
g107
(dp155
g140
I2
ssg110
(dp156
g140
I7
ssg131
(dp157
g140
I7
sssg107
(dp158
g104
g155
ssg110
(dp159
g104
g156
ssg113
(dp160
g122
(dp161
g140
I13
ssg125
(dp162
g140
I5
ssg131
(dp163
g140
I14
sssg116
(dp164
g80
g139
sg86
g142
sg122
(dp165
g140
I6
sssg119
(dp166
g98
g150
ssg122
(dp167
g128
(dp168
g140
I5
ssg116
g165
sg113
g161
ssg125
(dp169
g113
g162
ssg128
(dp170
g122
g168
sg95
g148
ssg131
(dp171
g98
g152
sg113
g163
sg104
g157
sssS'adj'
p172
g137
sbag72
(g73
g74
Ntp173
Rp174
(dp175
g78
(dp176
g80
(dp177
g82
(dp178
sg84
g85
ssg86
(dp179
g82
(dp180
sg84
g85
ssg89
(dp181
g82
(dp182
sg84
g85
ssg92
(dp183
g82
(dp184
sg84
g85
ssVA2b1-A2b2
p185
(dp186
g82
(dp187
sg84
g85
ssVA1b1-A1b2
p188
(dp189
g82
(dp190
sg84
g85
ssg101
(dp191
g82
(dp192
sg84
g85
ssVA1a1-A1a2
p193
(dp194
g82
(dp195
sg84
g85
ssg107
(dp196
g82
(dp197
sg84
g85
ssg110
(dp198
g82
(dp199
sg84
g85
ssVRoot-A1a1-A1a2-A1b1-A1b2
p200
(dp201
g82
(dp202
sg84
g85
ssVA2a1-A2a2
p203
(dp204
g82
(dp205
sg84
g85
ssg119
(dp206
g82
(dp207
sg84
g85
ssVRoot-A1a1-A1a2-A1b1-A1b2-A2a1-A2a2
p208
(dp209
g82
(dp210
sg84
g85
ssg125
(dp211
g82
(dp212
sg84
g85
ssVA2b1-A2b2-Root-A1a1-A1a2-A1b1-A1b2-A2a1-A2a2
p213
(dp214
g82
(dp215
sg84
g85
ssVA1a1-A1a2-A1b1-A1b2
p216
(dp217
g82
(dp218
sg84
g85
sssg134
(dp219
sg136
(dp220
g80
(dp221
g203
(dp222
g140
I4
sssg86
(dp223
g203
(dp224
g140
I7
sssg89
(dp225
g185
(dp226
g140
I8
sssg92
(dp227
g185
(dp228
g140
I7
sssg185
(dp229
g213
(dp230
g140
I5
ssg89
g226
sg92
g228
ssg188
(dp231
g119
(dp232
g140
I3
ssg101
(dp233
g140
I4
ssg216
(dp234
g140
I3
sssg101
(dp235
g188
g233
ssg193
(dp236
g107
(dp237
g140
I2
ssg110
(dp238
g140
I7
ssg216
(dp239
g140
I7
sssg107
(dp240
g193
g237
ssg110
(dp241
g193
g238
ssg200
(dp242
g208
(dp243
g140
I13
ssg125
(dp244
g140
I5
ssg216
(dp245
g140
I14
sssg203
(dp246
g80
g222
sg86
g224
sg208
(dp247
g140
I6
sssg119
(dp248
g188
g232
ssg208
(dp249
g213
(dp250
g140
I5
ssg203
g247
sg200
g243
ssg125
(dp251
g200
g244
ssg213
(dp252
g208
g250
sg185
g230
ssg216
(dp253
g188
g234
sg200
g245
sg193
g239
sssg172
g220
sbassS'linearregressionendswithcutoff_imputedtables'
p254
(dp255
g9
(lp256
(lp257
S'Tree'
p258
ag13
ag14
aa(lp259
S'Tree_taxa'
p260
ag17
ag17
aa(lp261
S'RefTree_taxa'
p262
ag17
ag17
aa(lp263
S'Common_taxa'
p264
ag17
ag17
aa(lp265
S'R-F'
p266
aS'0.0000'
p267
aS'0.0000'
p268
aa(lp269
S'R-F_toYuleAvg'
p270
aS'0.0000'
p271
aS'0.0000'
p272
aa(lp273
S'R-F_toUnifAvg'
p274
aS'0.0000'
p275
aS'0.0000'
p276
aa(lp277
S'MatchingSplit'
p278
aS'0.0000'
p279
aS'0.0000'
p280
aa(lp281
S'MatchingSplit_toYuleAvg'
p282
aS'0.0000'
p283
aS'0.0000'
p284
aa(lp285
S'MatchingSplit_toUnifAvg'
p286
aS'0.0000'
p287
aS'0.0000'
p288
aa(lp289
S'PathDiffernce'
p290
aS'0.0000'
p291
aS'0.0000'
p292
aa(lp293
S'PathDiffernce_toYuleAvg'
p294
aS'0.0000'
p295
aS'0.0000'
p296
aa(lp297
S'PathDiffernce_toUnifAvg'
p298
aS'0.0000'
p299
aS'0.0000'
p300
aa(lp301
S'Quartet'
p302
aS'0.0000'
p303
aS'0.0000'
p304
aa(lp305
S'Quartet_toYuleAvg'
p306
aS'0.0000'
p307
aS'0.0000'
p308
aa(lp309
S'Quartet_toUnifAvg'
p310
aS'0.0000'
p311
aS'0.0000'
p312
aasg70
(lp313
g72
(g73
g74
Ntp314
Rp315
(dp316
g78
(dp317
g80
(dp318
g82
(dp319
sg84
g85
ssVRoot-A1a1-A1a2-A1b1-A1b2-A2b1-A2b2
p320
(dp321
g82
(dp322
sg84
g85
ssg86
(dp323
g82
(dp324
sg84
g85
ssg89
(dp325
g82
(dp326
sg84
g85
ssg92
(dp327
g82
(dp328
sg84
g85
ssVA2b1-A2b2
p329
(dp330
g82
(dp331
sg84
g85
ssVA1b1-A1b2
p332
(dp333
g82
(dp334
sg84
g85
ssg101
(dp335
g82
(dp336
sg84
g85
ssVA1a1-A1a2
p337
(dp338
g82
(dp339
sg84
g85
ssVA2a1-A2a2-Root-A1a1-A1a2-A1b1-A1b2-A2b1-A2b2
p340
(dp341
g82
(dp342
sg84
g85
ssg107
(dp343
g82
(dp344
sg84
g85
ssg110
(dp345
g82
(dp346
sg84
g85
ssVA1a1-A1a2-A1b1-A1b2
p347
(dp348
g82
(dp349
sg84
g85
ssg119
(dp350
g82
(dp351
sg84
g85
ssg125
(dp352
g82
(dp353
sg84
g85
ssVRoot-A1a1-A1a2-A1b1-A1b2
p354
(dp355
g82
(dp356
sg84
g85
ssVA2a1-A2a2
p357
(dp358
g82
(dp359
sg84
g85
sssg134
(dp360
sg136
(dp361
g80
(dp362
g357
(dp363
g140
I5
sssg320
(dp364
g340
(dp365
g140
I6
ssg354
(dp366
g140
I13
ssg329
(dp367
g140
I6
sssg86
(dp368
g357
(dp369
g140
I8
sssg89
(dp370
g329
(dp371
g140
I8
sssg92
(dp372
g329
(dp373
g140
I7
sssg329
(dp374
g320
g367
sg89
g371
sg92
g373
ssg332
(dp375
g119
(dp376
g140
I3
ssg101
(dp377
g140
I4
ssg347
(dp378
g140
I3
sssg101
(dp379
g332
g377
ssg337
(dp380
g107
(dp381
g140
I2
ssg110
(dp382
g140
I6
ssg347
(dp383
g140
I7
sssg340
(dp384
g320
g365
sg357
(dp385
g140
I6
sssg107
(dp386
g337
g381
ssg110
(dp387
g337
g382
ssg347
(dp388
g332
g378
sg354
(dp389
g140
I14
ssg337
g383
ssg119
(dp390
g332
g376
ssg125
(dp391
g354
(dp392
g140
I5
sssg354
(dp393
g320
g366
sg125
g392
sg347
g389
ssg357
(dp394
g80
g363
sg86
g369
sg340
g385
sssg172
g361
sbag72
(g73
g74
Ntp395
Rp396
(dp397
g78
(dp398
g80
(dp399
g82
(dp400
sg84
g85
ssVRoot-A1a1-A1a2-A1b1-A1b2-A2b1-A2b2
p401
(dp402
g82
(dp403
sg84
g85
ssg86
(dp404
g82
(dp405
sg84
g85
ssg89
(dp406
g82
(dp407
sg84
g85
ssg92
(dp408
g82
(dp409
sg84
g85
ssVA2b1-A2b2
p410
(dp411
g82
(dp412
sg84
g85
ssVA1b1-A1b2
p413
(dp414
g82
(dp415
sg84
g85
ssg101
(dp416
g82
(dp417
sg84
g85
ssVA1a1-A1a2
p418
(dp419
g82
(dp420
sg84
g85
ssVA2a1-A2a2-Root-A1a1-A1a2-A1b1-A1b2-A2b1-A2b2
p421
(dp422
g82
(dp423
sg84
g85
ssg107
(dp424
g82
(dp425
sg84
g85
ssg110
(dp426
g82
(dp427
sg84
g85
ssVA1a1-A1a2-A1b1-A1b2
p428
(dp429
g82
(dp430
sg84
g85
ssg119
(dp431
g82
(dp432
sg84
g85
ssg125
(dp433
g82
(dp434
sg84
g85
ssVRoot-A1a1-A1a2-A1b1-A1b2
p435
(dp436
g82
(dp437
sg84
g85
ssVA2a1-A2a2
p438
(dp439
g82
(dp440
sg84
g85
sssg134
(dp441
sg136
(dp442
g80
(dp443
g438
(dp444
g140
I6
sssg401
(dp445
g421
(dp446
g140
I4
ssg435
(dp447
g140
I13
ssg410
(dp448
g140
I5
sssg86
(dp449
g438
(dp450
g140
I7
sssg89
(dp451
g410
(dp452
g140
I8
sssg92
(dp453
g410
(dp454
g140
I7
sssg410
(dp455
g401
g448
sg89
g452
sg92
g454
ssg413
(dp456
g119
(dp457
g140
I3
ssg101
(dp458
g140
I4
ssg428
(dp459
g140
I3
sssg101
(dp460
g413
g458
ssg418
(dp461
g107
(dp462
g140
I2
ssg110
(dp463
g140
I6
ssg428
(dp464
g140
I8
sssg421
(dp465
g401
g446
sg438
(dp466
g140
I4
sssg107
(dp467
g418
g462
ssg110
(dp468
g418
g463
ssg428
(dp469
g413
g459
sg435
(dp470
g140
I13
ssg418
g464
ssg119
(dp471
g413
g457
ssg125
(dp472
g435
(dp473
g140
I4
sssg435
(dp474
g401
g447
sg125
g473
sg428
g470
ssg438
(dp475
g80
g444
sg86
g450
sg421
g466
sssg172
g442
sbassS'Fitchforimputation_imputedtables'
p476
(dp477
g9
(lp478
(lp479
S'Tree'
p480
ag13
ag14
aa(lp481
S'Tree_taxa'
p482
ag17
ag17
aa(lp483
S'RefTree_taxa'
p484
ag17
ag17
aa(lp485
S'Common_taxa'
p486
ag17
ag17
aa(lp487
S'R-F'
p488
aS'0.0000'
p489
aS'0.0000'
p490
aa(lp491
S'R-F_toYuleAvg'
p492
aS'0.0000'
p493
aS'0.0000'
p494
aa(lp495
S'R-F_toUnifAvg'
p496
aS'0.0000'
p497
aS'0.0000'
p498
aa(lp499
S'MatchingSplit'
p500
aS'0.0000'
p501
aS'0.0000'
p502
aa(lp503
S'MatchingSplit_toYuleAvg'
p504
aS'0.0000'
p505
aS'0.0000'
p506
aa(lp507
S'MatchingSplit_toUnifAvg'
p508
aS'0.0000'
p509
aS'0.0000'
p510
aa(lp511
S'PathDiffernce'
p512
aS'0.0000'
p513
aS'0.0000'
p514
aa(lp515
S'PathDiffernce_toYuleAvg'
p516
aS'0.0000'
p517
aS'0.0000'
p518
aa(lp519
S'PathDiffernce_toUnifAvg'
p520
aS'0.0000'
p521
aS'0.0000'
p522
aa(lp523
S'Quartet'
p524
aS'0.0000'
p525
aS'0.0000'
p526
aa(lp527
S'Quartet_toYuleAvg'
p528
aS'0.0000'
p529
aS'0.0000'
p530
aa(lp531
S'Quartet_toUnifAvg'
p532
aS'0.0000'
p533
aS'0.0000'
p534
aasg70
(lp535
g72
(g73
g74
Ntp536
Rp537
(dp538
g78
(dp539
g80
(dp540
g82
(dp541
sg84
g85
ssg86
(dp542
g82
(dp543
sg84
g85
ssg89
(dp544
g82
(dp545
sg84
g85
ssg92
(dp546
g82
(dp547
sg84
g85
ssVA2b1-A2b2
p548
(dp549
g82
(dp550
sg84
g85
ssVA1b1-A1b2
p551
(dp552
g82
(dp553
sg84
g85
ssg101
(dp554
g82
(dp555
sg84
g85
ssVA1a1-A1a2
p556
(dp557
g82
(dp558
sg84
g85
ssg107
(dp559
g82
(dp560
sg84
g85
ssg110
(dp561
g82
(dp562
sg84
g85
ssVRoot-A1a1-A1a2-A1b1-A1b2
p563
(dp564
g82
(dp565
sg84
g85
ssVA2a1-A2a2
p566
(dp567
g82
(dp568
sg84
g85
ssg119
(dp569
g82
(dp570
sg84
g85
ssVRoot-A1a1-A1a2-A1b1-A1b2-A2a1-A2a2
p571
(dp572
g82
(dp573
sg84
g85
ssg125
(dp574
g82
(dp575
sg84
g85
ssVA2b1-A2b2-Root-A1a1-A1a2-A1b1-A1b2-A2a1-A2a2
p576
(dp577
g82
(dp578
sg84
g85
ssVA1a1-A1a2-A1b1-A1b2
p579
(dp580
g82
(dp581
sg84
g85
sssg134
(dp582
sg136
(dp583
g80
(dp584
g566
(dp585
g140
I4
sssg86
(dp586
g566
(dp587
g140
I7
sssg89
(dp588
g548
(dp589
g140
I8
sssg92
(dp590
g548
(dp591
g140
I7
sssg548
(dp592
g576
(dp593
g140
I5
ssg89
g589
sg92
g591
ssg551
(dp594
g119
(dp595
g140
I3
ssg101
(dp596
g140
I4
ssg579
(dp597
g140
I3
sssg101
(dp598
g551
g596
ssg556
(dp599
g107
(dp600
g140
I2
ssg110
(dp601
g140
I7
ssg579
(dp602
g140
I7
sssg107
(dp603
g556
g600
ssg110
(dp604
g556
g601
ssg563
(dp605
g571
(dp606
g140
I13
ssg125
(dp607
g140
I5
ssg579
(dp608
g140
I14
sssg566
(dp609
g80
g585
sg86
g587
sg571
(dp610
g140
I6
sssg119
(dp611
g551
g595
ssg571
(dp612
g576
(dp613
g140
I5
ssg566
g610
sg563
g606
ssg125
(dp614
g563
g607
ssg576
(dp615
g571
g613
sg548
g593
ssg579
(dp616
g551
g597
sg563
g608
sg556
g602
sssg172
g583
sbag72
(g73
g74
Ntp617
Rp618
(dp619
g78
(dp620
g80
(dp621
g82
(dp622
sg84
g85
ssg86
(dp623
g82
(dp624
sg84
g85
ssg89
(dp625
g82
(dp626
sg84
g85
ssg92
(dp627
g82
(dp628
sg84
g85
ssVA2b1-A2b2
p629
(dp630
g82
(dp631
sg84
g85
ssVA1b1-A1b2
p632
(dp633
g82
(dp634
sg84
g85
ssg101
(dp635
g82
(dp636
sg84
g85
ssVA1a1-A1a2
p637
(dp638
g82
(dp639
sg84
g85
ssg107
(dp640
g82
(dp641
sg84
g85
ssg110
(dp642
g82
(dp643
sg84
g85
ssVRoot-A1a1-A1a2-A1b1-A1b2
p644
(dp645
g82
(dp646
sg84
g85
ssVA2a1-A2a2
p647
(dp648
g82
(dp649
sg84
g85
ssg119
(dp650
g82
(dp651
sg84
g85
ssVRoot-A1a1-A1a2-A1b1-A1b2-A2a1-A2a2
p652
(dp653
g82
(dp654
sg84
g85
ssg125
(dp655
g82
(dp656
sg84
g85
ssVA2b1-A2b2-Root-A1a1-A1a2-A1b1-A1b2-A2a1-A2a2
p657
(dp658
g82
(dp659
sg84
g85
ssVA1a1-A1a2-A1b1-A1b2
p660
(dp661
g82
(dp662
sg84
g85
sssg134
(dp663
sg136
(dp664
g80
(dp665
g647
(dp666
g140
I4
sssg86
(dp667
g647
(dp668
g140
I7
sssg89
(dp669
g629
(dp670
g140
I8
sssg92
(dp671
g629
(dp672
g140
I7
sssg629
(dp673
g657
(dp674
g140
I5
ssg89
g670
sg92
g672
ssg632
(dp675
g119
(dp676
g140
I3
ssg101
(dp677
g140
I4
ssg660
(dp678
g140
I3
sssg101
(dp679
g632
g677
ssg637
(dp680
g107
(dp681
g140
I2
ssg110
(dp682
g140
I7
ssg660
(dp683
g140
I7
sssg107
(dp684
g637
g681
ssg110
(dp685
g637
g682
ssg644
(dp686
g652
(dp687
g140
I13
ssg125
(dp688
g140
I5
ssg660
(dp689
g140
I14
sssg647
(dp690
g80
g666
sg86
g668
sg652
(dp691
g140
I6
sssg119
(dp692
g632
g676
ssg652
(dp693
g657
(dp694
g140
I5
ssg647
g691
sg644
g687
ssg125
(dp695
g644
g688
ssg657
(dp696
g652
g694
sg629
g674
ssg660
(dp697
g632
g678
sg644
g689
sg637
g683
sssg172
g664
sbasssS'tableswith 1 missingentries'
p698
(dp699
S'onennimputationuniform_imputedtables'
p700
(dp701
g9
(lp702
(lp703
S'Tree'
p704
ag13
ag14
aa(lp705
S'Tree_taxa'
p706
ag17
ag17
aa(lp707
S'RefTree_taxa'
p708
ag17
ag17
aa(lp709
S'Common_taxa'
p710
ag17
ag17
aa(lp711
S'R-F'
p712
aS'0.0000'
p713
aS'0.0000'
p714
aa(lp715
S'R-F_toYuleAvg'
p716
aS'0.0000'
p717
aS'0.0000'
p718
aa(lp719
S'R-F_toUnifAvg'
p720
aS'0.0000'
p721
aS'0.0000'
p722
aa(lp723
S'MatchingSplit'
p724
aS'0.0000'
p725
aS'0.0000'
p726
aa(lp727
S'MatchingSplit_toYuleAvg'
p728
aS'0.0000'
p729
aS'0.0000'
p730
aa(lp731
S'MatchingSplit_toUnifAvg'
p732
aS'0.0000'
p733
aS'0.0000'
p734
aa(lp735
S'PathDiffernce'
p736
aS'0.0000'
p737
aS'0.0000'
p738
aa(lp739
S'PathDiffernce_toYuleAvg'
p740
aS'0.0000'
p741
aS'0.0000'
p742
aa(lp743
S'PathDiffernce_toUnifAvg'
p744
aS'0.0000'
p745
aS'0.0000'
p746
aa(lp747
S'Quartet'
p748
aS'0.0000'
p749
aS'0.0000'
p750
aa(lp751
S'Quartet_toYuleAvg'
p752
aS'0.0000'
p753
aS'0.0000'
p754
aa(lp755
S'Quartet_toUnifAvg'
p756
aS'0.0000'
p757
aS'0.0000'
p758
aasg70
(lp759
g72
(g73
g74
Ntp760
Rp761
(dp762
g78
(dp763
g80
(dp764
g82
(dp765
sg84
g85
ssg86
(dp766
g82
(dp767
sg84
g85
ssg89
(dp768
g82
(dp769
sg84
g85
ssg92
(dp770
g82
(dp771
sg84
g85
ssVA2b1-A2b2
p772
(dp773
g82
(dp774
sg84
g85
ssVA1b1-A1b2
p775
(dp776
g82
(dp777
sg84
g85
ssg101
(dp778
g82
(dp779
sg84
g85
ssVA1a1-A1a2
p780
(dp781
g82
(dp782
sg84
g85
ssg107
(dp783
g82
(dp784
sg84
g85
ssg110
(dp785
g82
(dp786
sg84
g85
ssVRoot-A1a1-A1a2-A1b1-A1b2
p787
(dp788
g82
(dp789
sg84
g85
ssVA2a1-A2a2
p790
(dp791
g82
(dp792
sg84
g85
ssg119
(dp793
g82
(dp794
sg84
g85
ssVRoot-A1a1-A1a2-A1b1-A1b2-A2a1-A2a2
p795
(dp796
g82
(dp797
sg84
g85
ssg125
(dp798
g82
(dp799
sg84
g85
ssVA2b1-A2b2-Root-A1a1-A1a2-A1b1-A1b2-A2a1-A2a2
p800
(dp801
g82
(dp802
sg84
g85
ssVA1a1-A1a2-A1b1-A1b2
p803
(dp804
g82
(dp805
sg84
g85
sssg134
(dp806
sg136
(dp807
g80
(dp808
g790
(dp809
g140
I4
sssg86
(dp810
g790
(dp811
g140
I7
sssg89
(dp812
g772
(dp813
g140
I8
sssg92
(dp814
g772
(dp815
g140
I7
sssg772
(dp816
g800
(dp817
g140
I5
ssg89
g813
sg92
g815
ssg775
(dp818
g119
(dp819
g140
I3
ssg101
(dp820
g140
I4
ssg803
(dp821
g140
I3
sssg101
(dp822
g775
g820
ssg780
(dp823
g107
(dp824
g140
I2
ssg110
(dp825
g140
I7
ssg803
(dp826
g140
I7
sssg107
(dp827
g780
g824
ssg110
(dp828
g780
g825
ssg787
(dp829
g795
(dp830
g140
I13
ssg125
(dp831
g140
I5
ssg803
(dp832
g140
I14
sssg790
(dp833
g80
g809
sg86
g811
sg795
(dp834
g140
I6
sssg119
(dp835
g775
g819
ssg795
(dp836
g800
(dp837
g140
I5
ssg790
g834
sg787
g830
ssg125
(dp838
g787
g831
ssg800
(dp839
g795
g837
sg772
g817
ssg803
(dp840
g775
g821
sg787
g832
sg780
g826
sssg172
g807
sbag72
(g73
g74
Ntp841
Rp842
(dp843
g78
(dp844
g80
(dp845
g82
(dp846
sg84
g85
ssg86
(dp847
g82
(dp848
sg84
g85
ssg89
(dp849
g82
(dp850
sg84
g85
ssg92
(dp851
g82
(dp852
sg84
g85
ssVA2b1-A2b2
p853
(dp854
g82
(dp855
sg84
g85
ssVA1b1-A1b2
p856
(dp857
g82
(dp858
sg84
g85
ssg101
(dp859
g82
(dp860
sg84
g85
ssVA1a1-A1a2
p861
(dp862
g82
(dp863
sg84
g85
ssg107
(dp864
g82
(dp865
sg84
g85
ssg110
(dp866
g82
(dp867
sg84
g85
ssVRoot-A1a1-A1a2-A1b1-A1b2
p868
(dp869
g82
(dp870
sg84
g85
ssVA2a1-A2a2
p871
(dp872
g82
(dp873
sg84
g85
ssg119
(dp874
g82
(dp875
sg84
g85
ssVRoot-A1a1-A1a2-A1b1-A1b2-A2a1-A2a2
p876
(dp877
g82
(dp878
sg84
g85
ssg125
(dp879
g82
(dp880
sg84
g85
ssVA2b1-A2b2-Root-A1a1-A1a2-A1b1-A1b2-A2a1-A2a2
p881
(dp882
g82
(dp883
sg84
g85
ssVA1a1-A1a2-A1b1-A1b2
p884
(dp885
g82
(dp886
sg84
g85
sssg134
(dp887
sg136
(dp888
g80
(dp889
g871
(dp890
g140
I4
sssg86
(dp891
g871
(dp892
g140
I7
sssg89
(dp893
g853
(dp894
g140
I8
sssg92
(dp895
g853
(dp896
g140
I7
sssg853
(dp897
g881
(dp898
g140
I5
ssg89
g894
sg92
g896
ssg856
(dp899
g119
(dp900
g140
I3
ssg101
(dp901
g140
I4
ssg884
(dp902
g140
I3
sssg101
(dp903
g856
g901
ssg861
(dp904
g107
(dp905
g140
I2
ssg110
(dp906
g140
I7
ssg884
(dp907
g140
I7
sssg107
(dp908
g861
g905
ssg110
(dp909
g861
g906
ssg868
(dp910
g876
(dp911
g140
I13
ssg125
(dp912
g140
I5
ssg884
(dp913
g140
I14
sssg871
(dp914
g80
g890
sg86
g892
sg876
(dp915
g140
I6
sssg119
(dp916
g856
g900
ssg876
(dp917
g881
(dp918
g140
I5
ssg871
g915
sg868
g911
ssg125
(dp919
g868
g912
ssg881
(dp920
g876
g918
sg853
g898
ssg884
(dp921
g856
g902
sg868
g913
sg861
g907
sssg172
g888
sbassS'linearregressionendswithcutoff_imputedtables'
p922
(dp923
g9
(lp924
(lp925
S'Tree'
p926
ag13
ag14
aa(lp927
S'Tree_taxa'
p928
ag17
ag17
aa(lp929
S'RefTree_taxa'
p930
ag17
ag17
aa(lp931
S'Common_taxa'
p932
ag17
ag17
aa(lp933
S'R-F'
p934
aS'0.0000'
p935
aS'0.0000'
p936
aa(lp937
S'R-F_toYuleAvg'
p938
aS'0.0000'
p939
aS'0.0000'
p940
aa(lp941
S'R-F_toUnifAvg'
p942
aS'0.0000'
p943
aS'0.0000'
p944
aa(lp945
S'MatchingSplit'
p946
aS'0.0000'
p947
aS'0.0000'
p948
aa(lp949
S'MatchingSplit_toYuleAvg'
p950
aS'0.0000'
p951
aS'0.0000'
p952
aa(lp953
S'MatchingSplit_toUnifAvg'
p954
aS'0.0000'
p955
aS'0.0000'
p956
aa(lp957
S'PathDiffernce'
p958
aS'0.0000'
p959
aS'0.0000'
p960
aa(lp961
S'PathDiffernce_toYuleAvg'
p962
aS'0.0000'
p963
aS'0.0000'
p964
aa(lp965
S'PathDiffernce_toUnifAvg'
p966
aS'0.0000'
p967
aS'0.0000'
p968
aa(lp969
S'Quartet'
p970
aS'0.0000'
p971
aS'0.0000'
p972
aa(lp973
S'Quartet_toYuleAvg'
p974
aS'0.0000'
p975
aS'0.0000'
p976
aa(lp977
S'Quartet_toUnifAvg'
p978
aS'0.0000'
p979
aS'0.0000'
p980
aasg70
(lp981
g72
(g73
g74
Ntp982
Rp983
(dp984
g78
(dp985
g80
(dp986
g82
(dp987
sg84
g85
ssg86
(dp988
g82
(dp989
sg84
g85
ssg89
(dp990
g82
(dp991
sg84
g85
ssg92
(dp992
g82
(dp993
sg84
g85
ssVA2b1-A2b2
p994
(dp995
g82
(dp996
sg84
g85
ssVA1b1-A1b2
p997
(dp998
g82
(dp999
sg84
g85
ssg101
(dp1000
g82
(dp1001
sg84
g85
ssVA1a1-A1a2
p1002
(dp1003
g82
(dp1004
sg84
g85
ssg107
(dp1005
g82
(dp1006
sg84
g85
ssg110
(dp1007
g82
(dp1008
sg84
g85
ssVRoot-A1a1-A1a2-A1b1-A1b2
p1009
(dp1010
g82
(dp1011
sg84
g85
ssVA2a1-A2a2
p1012
(dp1013
g82
(dp1014
sg84
g85
ssg119
(dp1015
g82
(dp1016
sg84
g85
ssVRoot-A1a1-A1a2-A1b1-A1b2-A2a1-A2a2
p1017
(dp1018
g82
(dp1019
sg84
g85
ssg125
(dp1020
g82
(dp1021
sg84
g85
ssVA2b1-A2b2-Root-A1a1-A1a2-A1b1-A1b2-A2a1-A2a2
p1022
(dp1023
g82
(dp1024
sg84
g85
ssVA1a1-A1a2-A1b1-A1b2
p1025
(dp1026
g82
(dp1027
sg84
g85
sssg134
(dp1028
sg136
(dp1029
g80
(dp1030
g1012
(dp1031
g140
I4
sssg86
(dp1032
g1012
(dp1033
g140
I7
sssg89
(dp1034
g994
(dp1035
g140
I9
sssg92
(dp1036
g994
(dp1037
g140
I8
sssg994
(dp1038
g1022
(dp1039
g140
I5
ssg89
g1035
sg92
g1037
ssg997
(dp1040
g119
(dp1041
g140
I3
ssg101
(dp1042
g140
I4
ssg1025
(dp1043
g140
I3
sssg101
(dp1044
g997
g1042
ssg1002
(dp1045
g107
(dp1046
g140
I2
ssg110
(dp1047
g140
I6
ssg1025
(dp1048
g140
I7
sssg107
(dp1049
g1002
g1046
ssg110
(dp1050
g1002
g1047
ssg1009
(dp1051
g1017
(dp1052
g140
I13
ssg125
(dp1053
g140
I5
ssg1025
(dp1054
g140
I14
sssg1012
(dp1055
g80
g1031
sg86
g1033
sg1017
(dp1056
g140
I7
sssg119
(dp1057
g997
g1041
ssg1017
(dp1058
g1022
(dp1059
g140
I5
ssg1012
g1056
sg1009
g1052
ssg125
(dp1060
g1009
g1053
ssg1022
(dp1061
g1017
g1059
sg994
g1039
ssg1025
(dp1062
g997
g1043
sg1009
g1054
sg1002
g1048
sssg172
g1029
sbag72
(g73
g74
Ntp1063
Rp1064
(dp1065
g78
(dp1066
g80
(dp1067
g82
(dp1068
sg84
g85
ssg86
(dp1069
g82
(dp1070
sg84
g85
ssg89
(dp1071
g82
(dp1072
sg84
g85
ssg92
(dp1073
g82
(dp1074
sg84
g85
ssVA2b1-A2b2
p1075
(dp1076
g82
(dp1077
sg84
g85
ssVA1b1-A1b2
p1078
(dp1079
g82
(dp1080
sg84
g85
ssg101
(dp1081
g82
(dp1082
sg84
g85
ssVA1a1-A1a2
p1083
(dp1084
g82
(dp1085
sg84
g85
ssg107
(dp1086
g82
(dp1087
sg84
g85
ssg110
(dp1088
g82
(dp1089
sg84
g85
ssVRoot-A1a1-A1a2-A1b1-A1b2
p1090
(dp1091
g82
(dp1092
sg84
g85
ssVA2a1-A2a2
p1093
(dp1094
g82
(dp1095
sg84
g85
ssg119
(dp1096
g82
(dp1097
sg84
g85
ssVRoot-A1a1-A1a2-A1b1-A1b2-A2a1-A2a2
p1098
(dp1099
g82
(dp1100
sg84
g85
ssg125
(dp1101
g82
(dp1102
sg84
g85
ssVA2b1-A2b2-Root-A1a1-A1a2-A1b1-A1b2-A2a1-A2a2
p1103
(dp1104
g82
(dp1105
sg84
g85
ssVA1a1-A1a2-A1b1-A1b2
p1106
(dp1107
g82
(dp1108
sg84
g85
sssg134
(dp1109
sg136
(dp1110
g80
(dp1111
g1093
(dp1112
g140
I4
sssg86
(dp1113
g1093
(dp1114
g140
I7
sssg89
(dp1115
g1075
(dp1116
g140
I8
sssg92
(dp1117
g1075
(dp1118
g140
I7
sssg1075
(dp1119
g1103
(dp1120
g140
I5
ssg89
g1116
sg92
g1118
ssg1078
(dp1121
g119
(dp1122
g140
I3
ssg101
(dp1123
g140
I5
ssg1106
(dp1124
g140
I3
sssg101
(dp1125
g1078
g1123
ssg1083
(dp1126
g107
(dp1127
g140
I2
ssg110
(dp1128
g140
I6
ssg1106
(dp1129
g140
I8
sssg107
(dp1130
g1083
g1127
ssg110
(dp1131
g1083
g1128
ssg1090
(dp1132
g1098
(dp1133
g140
I13
ssg125
(dp1134
g140
I4
ssg1106
(dp1135
g140
I13
sssg1093
(dp1136
g80
g1112
sg86
g1114
sg1098
(dp1137
g140
I6
sssg119
(dp1138
g1078
g1122
ssg1098
(dp1139
g1103
(dp1140
g140
I5
ssg1093
g1137
sg1090
g1133
ssg125
(dp1141
g1090
g1134
ssg1103
(dp1142
g1098
g1140
sg1075
g1120
ssg1106
(dp1143
g1078
g1124
sg1090
g1135
sg1083
g1129
sssg172
g1110
sbassS'Fitchforimputation_imputedtables'
p1144
(dp1145
g9
(lp1146
(lp1147
S'Tree'
p1148
ag13
ag14
aa(lp1149
S'Tree_taxa'
p1150
ag17
ag17
aa(lp1151
S'RefTree_taxa'
p1152
ag17
ag17
aa(lp1153
S'Common_taxa'
p1154
ag17
ag17
aa(lp1155
S'R-F'
p1156
aS'0.0000'
p1157
aS'0.0000'
p1158
aa(lp1159
S'R-F_toYuleAvg'
p1160
aS'0.0000'
p1161
aS'0.0000'
p1162
aa(lp1163
S'R-F_toUnifAvg'
p1164
aS'0.0000'
p1165
aS'0.0000'
p1166
aa(lp1167
S'MatchingSplit'
p1168
aS'0.0000'
p1169
aS'0.0000'
p1170
aa(lp1171
S'MatchingSplit_toYuleAvg'
p1172
aS'0.0000'
p1173
aS'0.0000'
p1174
aa(lp1175
S'MatchingSplit_toUnifAvg'
p1176
aS'0.0000'
p1177
aS'0.0000'
p1178
aa(lp1179
S'PathDiffernce'
p1180
aS'0.0000'
p1181
aS'0.0000'
p1182
aa(lp1183
S'PathDiffernce_toYuleAvg'
p1184
aS'0.0000'
p1185
aS'0.0000'
p1186
aa(lp1187
S'PathDiffernce_toUnifAvg'
p1188
aS'0.0000'
p1189
aS'0.0000'
p1190
aa(lp1191
S'Quartet'
p1192
aS'0.0000'
p1193
aS'0.0000'
p1194
aa(lp1195
S'Quartet_toYuleAvg'
p1196
aS'0.0000'
p1197
aS'0.0000'
p1198
aa(lp1199
S'Quartet_toUnifAvg'
p1200
aS'0.0000'
p1201
aS'0.0000'
p1202
aasg70
(lp1203
g72
(g73
g74
Ntp1204
Rp1205
(dp1206
g78
(dp1207
g80
(dp1208
g82
(dp1209
sg84
g85
ssg86
(dp1210
g82
(dp1211
sg84
g85
ssg89
(dp1212
g82
(dp1213
sg84
g85
ssg92
(dp1214
g82
(dp1215
sg84
g85
ssVA2b1-A2b2
p1216
(dp1217
g82
(dp1218
sg84
g85
ssVA1b1-A1b2
p1219
(dp1220
g82
(dp1221
sg84
g85
ssg101
(dp1222
g82
(dp1223
sg84
g85
ssVA1a1-A1a2
p1224
(dp1225
g82
(dp1226
sg84
g85
ssg107
(dp1227
g82
(dp1228
sg84
g85
ssg110
(dp1229
g82
(dp1230
sg84
g85
ssVRoot-A1a1-A1a2-A1b1-A1b2
p1231
(dp1232
g82
(dp1233
sg84
g85
ssVA2a1-A2a2
p1234
(dp1235
g82
(dp1236
sg84
g85
ssg119
(dp1237
g82
(dp1238
sg84
g85
ssVRoot-A1a1-A1a2-A1b1-A1b2-A2a1-A2a2
p1239
(dp1240
g82
(dp1241
sg84
g85
ssg125
(dp1242
g82
(dp1243
sg84
g85
ssVA2b1-A2b2-Root-A1a1-A1a2-A1b1-A1b2-A2a1-A2a2
p1244
(dp1245
g82
(dp1246
sg84
g85
ssVA1a1-A1a2-A1b1-A1b2
p1247
(dp1248
g82
(dp1249
sg84
g85
sssg134
(dp1250
sg136
(dp1251
g80
(dp1252
g1234
(dp1253
g140
I4
sssg86
(dp1254
g1234
(dp1255
g140
I7
sssg89
(dp1256
g1216
(dp1257
g140
I8
sssg92
(dp1258
g1216
(dp1259
g140
I7
sssg1216
(dp1260
g1244
(dp1261
g140
I5
ssg89
g1257
sg92
g1259
ssg1219
(dp1262
g119
(dp1263
g140
I3
ssg101
(dp1264
g140
I4
ssg1247
(dp1265
g140
I3
sssg101
(dp1266
g1219
g1264
ssg1224
(dp1267
g107
(dp1268
g140
I2
ssg110
(dp1269
g140
I7
ssg1247
(dp1270
g140
I7
sssg107
(dp1271
g1224
g1268
ssg110
(dp1272
g1224
g1269
ssg1231
(dp1273
g1239
(dp1274
g140
I13
ssg125
(dp1275
g140
I5
ssg1247
(dp1276
g140
I14
sssg1234
(dp1277
g80
g1253
sg86
g1255
sg1239
(dp1278
g140
I6
sssg119
(dp1279
g1219
g1263
ssg1239
(dp1280
g1244
(dp1281
g140
I5
ssg1234
g1278
sg1231
g1274
ssg125
(dp1282
g1231
g1275
ssg1244
(dp1283
g1239
g1281
sg1216
g1261
ssg1247
(dp1284
g1219
g1265
sg1231
g1276
sg1224
g1270
sssg172
g1251
sbag72
(g73
g74
Ntp1285
Rp1286
(dp1287
g78
(dp1288
g80
(dp1289
g82
(dp1290
sg84
g85
ssg86
(dp1291
g82
(dp1292
sg84
g85
ssg89
(dp1293
g82
(dp1294
sg84
g85
ssg92
(dp1295
g82
(dp1296
sg84
g85
ssVA2b1-A2b2
p1297
(dp1298
g82
(dp1299
sg84
g85
ssVA1b1-A1b2
p1300
(dp1301
g82
(dp1302
sg84
g85
ssg101
(dp1303
g82
(dp1304
sg84
g85
ssVA1a1-A1a2
p1305
(dp1306
g82
(dp1307
sg84
g85
ssg107
(dp1308
g82
(dp1309
sg84
g85
ssg110
(dp1310
g82
(dp1311
sg84
g85
ssVRoot-A1a1-A1a2-A1b1-A1b2
p1312
(dp1313
g82
(dp1314
sg84
g85
ssVA2a1-A2a2
p1315
(dp1316
g82
(dp1317
sg84
g85
ssg119
(dp1318
g82
(dp1319
sg84
g85
ssVRoot-A1a1-A1a2-A1b1-A1b2-A2a1-A2a2
p1320
(dp1321
g82
(dp1322
sg84
g85
ssg125
(dp1323
g82
(dp1324
sg84
g85
ssVA2b1-A2b2-Root-A1a1-A1a2-A1b1-A1b2-A2a1-A2a2
p1325
(dp1326
g82
(dp1327
sg84
g85
ssVA1a1-A1a2-A1b1-A1b2
p1328
(dp1329
g82
(dp1330
sg84
g85
sssg134
(dp1331
sg136
(dp1332
g80
(dp1333
g1315
(dp1334
g140
I4
sssg86
(dp1335
g1315
(dp1336
g140
I7
sssg89
(dp1337
g1297
(dp1338
g140
I8
sssg92
(dp1339
g1297
(dp1340
g140
I7
sssg1297
(dp1341
g1325
(dp1342
g140
I5
ssg89
g1338
sg92
g1340
ssg1300
(dp1343
g119
(dp1344
g140
I3
ssg101
(dp1345
g140
I4
ssg1328
(dp1346
g140
I3
sssg101
(dp1347
g1300
g1345
ssg1305
(dp1348
g107
(dp1349
g140
I2
ssg110
(dp1350
g140
I7
ssg1328
(dp1351
g140
I7
sssg107
(dp1352
g1305
g1349
ssg110
(dp1353
g1305
g1350
ssg1312
(dp1354
g1320
(dp1355
g140
I13
ssg125
(dp1356
g140
I5
ssg1328
(dp1357
g140
I14
sssg1315
(dp1358
g80
g1334
sg86
g1336
sg1320
(dp1359
g140
I6
sssg119
(dp1360
g1300
g1344
ssg1320
(dp1361
g1325
(dp1362
g140
I5
ssg1315
g1359
sg1312
g1355
ssg125
(dp1363
g1312
g1356
ssg1325
(dp1364
g1320
g1362
sg1297
g1342
ssg1328
(dp1365
g1300
g1346
sg1312
g1357
sg1305
g1351
sssg172
g1332
sbassssS'missingentriestablesdata_madeby_rauvfm'
p1366
(dp1367
S'tableswith 2 missingentries'
p1368
(dp1369
S'onennimputationuniform_imputedtables'
p1370
(dp1371
g9
(lp1372
(lp1373
S'Tree'
p1374
ag13
ag14
aa(lp1375
S'Tree_taxa'
p1376
ag17
ag17
aa(lp1377
S'RefTree_taxa'
p1378
ag17
ag17
aa(lp1379
S'Common_taxa'
p1380
ag17
ag17
aa(lp1381
S'R-F'
p1382
aS'0.0000'
p1383
aS'0.0000'
p1384
aa(lp1385
S'R-F_toYuleAvg'
p1386
aS'0.0000'
p1387
aS'0.0000'
p1388
aa(lp1389
S'R-F_toUnifAvg'
p1390
aS'0.0000'
p1391
aS'0.0000'
p1392
aa(lp1393
S'MatchingSplit'
p1394
aS'0.0000'
p1395
aS'0.0000'
p1396
aa(lp1397
S'MatchingSplit_toYuleAvg'
p1398
aS'0.0000'
p1399
aS'0.0000'
p1400
aa(lp1401
S'MatchingSplit_toUnifAvg'
p1402
aS'0.0000'
p1403
aS'0.0000'
p1404
aa(lp1405
S'PathDiffernce'
p1406
aS'0.0000'
p1407
aS'0.0000'
p1408
aa(lp1409
S'PathDiffernce_toYuleAvg'
p1410
aS'0.0000'
p1411
aS'0.0000'
p1412
aa(lp1413
S'PathDiffernce_toUnifAvg'
p1414
aS'0.0000'
p1415
aS'0.0000'
p1416
aa(lp1417
S'Quartet'
p1418
aS'0.0000'
p1419
aS'0.0000'
p1420
aa(lp1421
S'Quartet_toYuleAvg'
p1422
aS'0.0000'
p1423
aS'0.0000'
p1424
aa(lp1425
S'Quartet_toUnifAvg'
p1426
aS'0.0000'
p1427
aS'0.0000'
p1428
aasg70
(lp1429
g72
(g73
g74
Ntp1430
Rp1431
(dp1432
g78
(dp1433
g80
(dp1434
g82
(dp1435
sg84
g85
ssg86
(dp1436
g82
(dp1437
sg84
g85
ssg89
(dp1438
g82
(dp1439
sg84
g85
ssg92
(dp1440
g82
(dp1441
sg84
g85
ssVA2b1-A2b2
p1442
(dp1443
g82
(dp1444
sg84
g85
ssVA1b1-A1b2
p1445
(dp1446
g82
(dp1447
sg84
g85
ssg101
(dp1448
g82
(dp1449
sg84
g85
ssVA1a1-A1a2
p1450
(dp1451
g82
(dp1452
sg84
g85
ssg107
(dp1453
g82
(dp1454
sg84
g85
ssg110
(dp1455
g82
(dp1456
sg84
g85
ssVRoot-A1a1-A1a2-A1b1-A1b2
p1457
(dp1458
g82
(dp1459
sg84
g85
ssVA2a1-A2a2
p1460
(dp1461
g82
(dp1462
sg84
g85
ssg119
(dp1463
g82
(dp1464
sg84
g85
ssVRoot-A1a1-A1a2-A1b1-A1b2-A2a1-A2a2
p1465
(dp1466
g82
(dp1467
sg84
g85
ssg125
(dp1468
g82
(dp1469
sg84
g85
ssVA2b1-A2b2-Root-A1a1-A1a2-A1b1-A1b2-A2a1-A2a2
p1470
(dp1471
g82
(dp1472
sg84
g85
ssVA1a1-A1a2-A1b1-A1b2
p1473
(dp1474
g82
(dp1475
sg84
g85
sssg134
(dp1476
sg136
(dp1477
g80
(dp1478
g1460
(dp1479
g140
I4
sssg86
(dp1480
g1460
(dp1481
g140
I7
sssg89
(dp1482
g1442
(dp1483
g140
I8
sssg92
(dp1484
g1442
(dp1485
g140
I7
sssg1442
(dp1486
g1470
(dp1487
g140
I5
ssg89
g1483
sg92
g1485
ssg1445
(dp1488
g119
(dp1489
g140
I3
ssg101
(dp1490
g140
I4
ssg1473
(dp1491
g140
I3
sssg101
(dp1492
g1445
g1490
ssg1450
(dp1493
g107
(dp1494
g140
I2
ssg110
(dp1495
g140
I7
ssg1473
(dp1496
g140
I7
sssg107
(dp1497
g1450
g1494
ssg110
(dp1498
g1450
g1495
ssg1457
(dp1499
g1465
(dp1500
g140
I13
ssg125
(dp1501
g140
I5
ssg1473
(dp1502
g140
I14
sssg1460
(dp1503
g80
g1479
sg86
g1481
sg1465
(dp1504
g140
I6
sssg119
(dp1505
g1445
g1489
ssg1465
(dp1506
g1470
(dp1507
g140
I5
ssg1460
g1504
sg1457
g1500
ssg125
(dp1508
g1457
g1501
ssg1470
(dp1509
g1465
g1507
sg1442
g1487
ssg1473
(dp1510
g1445
g1491
sg1457
g1502
sg1450
g1496
sssg172
g1477
sbag72
(g73
g74
Ntp1511
Rp1512
(dp1513
g78
(dp1514
g80
(dp1515
g82
(dp1516
sg84
g85
ssg86
(dp1517
g82
(dp1518
sg84
g85
ssg89
(dp1519
g82
(dp1520
sg84
g85
ssg92
(dp1521
g82
(dp1522
sg84
g85
ssVA2b1-A2b2
p1523
(dp1524
g82
(dp1525
sg84
g85
ssVA1b1-A1b2
p1526
(dp1527
g82
(dp1528
sg84
g85
ssg101
(dp1529
g82
(dp1530
sg84
g85
ssVA1a1-A1a2
p1531
(dp1532
g82
(dp1533
sg84
g85
ssg107
(dp1534
g82
(dp1535
sg84
g85
ssg110
(dp1536
g82
(dp1537
sg84
g85
ssVRoot-A1a1-A1a2-A1b1-A1b2
p1538
(dp1539
g82
(dp1540
sg84
g85
ssVA2a1-A2a2
p1541
(dp1542
g82
(dp1543
sg84
g85
ssg119
(dp1544
g82
(dp1545
sg84
g85
ssVRoot-A1a1-A1a2-A1b1-A1b2-A2a1-A2a2
p1546
(dp1547
g82
(dp1548
sg84
g85
ssg125
(dp1549
g82
(dp1550
sg84
g85
ssVA2b1-A2b2-Root-A1a1-A1a2-A1b1-A1b2-A2a1-A2a2
p1551
(dp1552
g82
(dp1553
sg84
g85
ssVA1a1-A1a2-A1b1-A1b2
p1554
(dp1555
g82
(dp1556
sg84
g85
sssg134
(dp1557
sg136
(dp1558
g80
(dp1559
g1541
(dp1560
g140
I4
sssg86
(dp1561
g1541
(dp1562
g140
I7
sssg89
(dp1563
g1523
(dp1564
g140
I7
sssg92
(dp1565
g1523
(dp1566
g140
I7
sssg1523
(dp1567
g1551
(dp1568
g140
I6
ssg89
g1564
sg92
g1566
ssg1526
(dp1569
g119
(dp1570
g140
I3
ssg101
(dp1571
g140
I4
ssg1554
(dp1572
g140
I4
sssg101
(dp1573
g1526
g1571
ssg1531
(dp1574
g107
(dp1575
g140
I2
ssg110
(dp1576
g140
I6
ssg1554
(dp1577
g140
I7
sssg107
(dp1578
g1531
g1575
ssg110
(dp1579
g1531
g1576
ssg1538
(dp1580
g1546
(dp1581
g140
I14
ssg125
(dp1582
g140
I7
ssg1554
(dp1583
g140
I12
sssg1541
(dp1584
g80
g1560
sg86
g1562
sg1546
(dp1585
g140
I6
sssg119
(dp1586
g1526
g1570
ssg1546
(dp1587
g1551
(dp1588
g140
I6
ssg1541
g1585
sg1538
g1581
ssg125
(dp1589
g1538
g1582
ssg1551
(dp1590
g1546
g1588
sg1523
g1568
ssg1554
(dp1591
g1526
g1572
sg1538
g1583
sg1531
g1577
sssg172
g1558
sbassS'linearregressionendswithcutoff_imputedtables'
p1592
(dp1593
g9
(lp1594
(lp1595
S'Tree'
p1596
ag13
ag14
aa(lp1597
S'Tree_taxa'
p1598
ag17
ag17
aa(lp1599
S'RefTree_taxa'
p1600
ag17
ag17
aa(lp1601
S'Common_taxa'
p1602
ag17
ag17
aa(lp1603
S'R-F'
p1604
aS'0.0000'
p1605
aS'0.0000'
p1606
aa(lp1607
S'R-F_toYuleAvg'
p1608
aS'0.0000'
p1609
aS'0.0000'
p1610
aa(lp1611
S'R-F_toUnifAvg'
p1612
aS'0.0000'
p1613
aS'0.0000'
p1614
aa(lp1615
S'MatchingSplit'
p1616
aS'0.0000'
p1617
aS'0.0000'
p1618
aa(lp1619
S'MatchingSplit_toYuleAvg'
p1620
aS'0.0000'
p1621
aS'0.0000'
p1622
aa(lp1623
S'MatchingSplit_toUnifAvg'
p1624
aS'0.0000'
p1625
aS'0.0000'
p1626
aa(lp1627
S'PathDiffernce'
p1628
aS'0.0000'
p1629
aS'0.0000'
p1630
aa(lp1631
S'PathDiffernce_toYuleAvg'
p1632
aS'0.0000'
p1633
aS'0.0000'
p1634
aa(lp1635
S'PathDiffernce_toUnifAvg'
p1636
aS'0.0000'
p1637
aS'0.0000'
p1638
aa(lp1639
S'Quartet'
p1640
aS'0.0000'
p1641
aS'0.0000'
p1642
aa(lp1643
S'Quartet_toYuleAvg'
p1644
aS'0.0000'
p1645
aS'0.0000'
p1646
aa(lp1647
S'Quartet_toUnifAvg'
p1648
aS'0.0000'
p1649
aS'0.0000'
p1650
aasg70
(lp1651
g72
(g73
g74
Ntp1652
Rp1653
(dp1654
g78
(dp1655
g80
(dp1656
g82
(dp1657
sg84
g85
ssg86
(dp1658
g82
(dp1659
sg84
g85
ssg89
(dp1660
g82
(dp1661
sg84
g85
ssg92
(dp1662
g82
(dp1663
sg84
g85
ssVA2b1-A2b2
p1664
(dp1665
g82
(dp1666
sg84
g85
ssVA1b1-A1b2
p1667
(dp1668
g82
(dp1669
sg84
g85
ssg101
(dp1670
g82
(dp1671
sg84
g85
ssVA1a1-A1a2
p1672
(dp1673
g82
(dp1674
sg84
g85
ssg107
(dp1675
g82
(dp1676
sg84
g85
ssg110
(dp1677
g82
(dp1678
sg84
g85
ssVRoot-A1a1-A1a2-A1b1-A1b2
p1679
(dp1680
g82
(dp1681
sg84
g85
ssVA2a1-A2a2
p1682
(dp1683
g82
(dp1684
sg84
g85
ssg119
(dp1685
g82
(dp1686
sg84
g85
ssVRoot-A1a1-A1a2-A1b1-A1b2-A2a1-A2a2
p1687
(dp1688
g82
(dp1689
sg84
g85
ssg125
(dp1690
g82
(dp1691
sg84
g85
ssVA2b1-A2b2-Root-A1a1-A1a2-A1b1-A1b2-A2a1-A2a2
p1692
(dp1693
g82
(dp1694
sg84
g85
ssVA1a1-A1a2-A1b1-A1b2
p1695
(dp1696
g82
(dp1697
sg84
g85
sssg134
(dp1698
sg136
(dp1699
g80
(dp1700
g1682
(dp1701
g140
I4
sssg86
(dp1702
g1682
(dp1703
g140
I7
sssg89
(dp1704
g1664
(dp1705
g140
I8
sssg92
(dp1706
g1664
(dp1707
g140
I7
sssg1664
(dp1708
g1692
(dp1709
g140
I5
ssg89
g1705
sg92
g1707
ssg1667
(dp1710
g119
(dp1711
g140
I4
ssg101
(dp1712
g140
I4
ssg1695
(dp1713
g140
I2
sssg101
(dp1714
g1667
g1712
ssg1672
(dp1715
g107
(dp1716
g140
I2
ssg110
(dp1717
g140
I6
ssg1695
(dp1718
g140
I8
sssg107
(dp1719
g1672
g1716
ssg110
(dp1720
g1672
g1717
ssg1679
(dp1721
g1687
(dp1722
g140
I13
ssg125
(dp1723
g140
I5
ssg1695
(dp1724
g140
I13
sssg1682
(dp1725
g80
g1701
sg86
g1703
sg1687
(dp1726
g140
I6
sssg119
(dp1727
g1667
g1711
ssg1687
(dp1728
g1692
(dp1729
g140
I5
ssg1682
g1726
sg1679
g1722
ssg125
(dp1730
g1679
g1723
ssg1692
(dp1731
g1687
g1729
sg1664
g1709
ssg1695
(dp1732
g1667
g1713
sg1679
g1724
sg1672
g1718
sssg172
g1699
sbag72
(g73
g74
Ntp1733
Rp1734
(dp1735
g78
(dp1736
g80
(dp1737
g82
(dp1738
sg84
g85
ssg86
(dp1739
g82
(dp1740
sg84
g85
ssg89
(dp1741
g82
(dp1742
sg84
g85
ssg92
(dp1743
g82
(dp1744
sg84
g85
ssVA2b1-A2b2
p1745
(dp1746
g82
(dp1747
sg84
g85
ssVA1b1-A1b2
p1748
(dp1749
g82
(dp1750
sg84
g85
ssg101
(dp1751
g82
(dp1752
sg84
g85
ssVA1a1-A1a2
p1753
(dp1754
g82
(dp1755
sg84
g85
ssg107
(dp1756
g82
(dp1757
sg84
g85
ssg110
(dp1758
g82
(dp1759
sg84
g85
ssVRoot-A1a1-A1a2-A1b1-A1b2
p1760
(dp1761
g82
(dp1762
sg84
g85
ssVA2a1-A2a2
p1763
(dp1764
g82
(dp1765
sg84
g85
ssg119
(dp1766
g82
(dp1767
sg84
g85
ssVRoot-A1a1-A1a2-A1b1-A1b2-A2a1-A2a2
p1768
(dp1769
g82
(dp1770
sg84
g85
ssg125
(dp1771
g82
(dp1772
sg84
g85
ssVA2b1-A2b2-Root-A1a1-A1a2-A1b1-A1b2-A2a1-A2a2
p1773
(dp1774
g82
(dp1775
sg84
g85
ssVA1a1-A1a2-A1b1-A1b2
p1776
(dp1777
g82
(dp1778
sg84
g85
sssg134
(dp1779
sg136
(dp1780
g80
(dp1781
g1763
(dp1782
g140
I4
sssg86
(dp1783
g1763
(dp1784
g140
I7
sssg89
(dp1785
g1745
(dp1786
g140
I7
sssg92
(dp1787
g1745
(dp1788
g140
I7
sssg1745
(dp1789
g1773
(dp1790
g140
I6
ssg89
g1786
sg92
g1788
ssg1748
(dp1791
g119
(dp1792
g140
I3
ssg101
(dp1793
g140
I4
ssg1776
(dp1794
g140
I3
sssg101
(dp1795
g1748
g1793
ssg1753
(dp1796
g107
(dp1797
g140
I2
ssg110
(dp1798
g140
I7
ssg1776
(dp1799
g140
I7
sssg107
(dp1800
g1753
g1797
ssg110
(dp1801
g1753
g1798
ssg1760
(dp1802
g1768
(dp1803
g140
I12
ssg125
(dp1804
g140
I5
ssg1776
(dp1805
g140
I14
sssg1763
(dp1806
g80
g1782
sg86
g1784
sg1768
(dp1807
g140
I6
sssg119
(dp1808
g1748
g1792
ssg1768
(dp1809
g1773
(dp1810
g140
I6
ssg1763
g1807
sg1760
g1803
ssg125
(dp1811
g1760
g1804
ssg1773
(dp1812
g1768
g1810
sg1745
g1790
ssg1776
(dp1813
g1748
g1794
sg1760
g1805
sg1753
g1799
sssg172
g1780
sbassS'Fitchforimputation_imputedtables'
p1814
(dp1815
g9
(lp1816
(lp1817
S'Tree'
p1818
ag13
ag14
aa(lp1819
S'Tree_taxa'
p1820
ag17
ag17
aa(lp1821
S'RefTree_taxa'
p1822
ag17
ag17
aa(lp1823
S'Common_taxa'
p1824
ag17
ag17
aa(lp1825
S'R-F'
p1826
aS'0.0000'
p1827
aS'0.0000'
p1828
aa(lp1829
S'R-F_toYuleAvg'
p1830
aS'0.0000'
p1831
aS'0.0000'
p1832
aa(lp1833
S'R-F_toUnifAvg'
p1834
aS'0.0000'
p1835
aS'0.0000'
p1836
aa(lp1837
S'MatchingSplit'
p1838
aS'0.0000'
p1839
aS'0.0000'
p1840
aa(lp1841
S'MatchingSplit_toYuleAvg'
p1842
aS'0.0000'
p1843
aS'0.0000'
p1844
aa(lp1845
S'MatchingSplit_toUnifAvg'
p1846
aS'0.0000'
p1847
aS'0.0000'
p1848
aa(lp1849
S'PathDiffernce'
p1850
aS'0.0000'
p1851
aS'0.0000'
p1852
aa(lp1853
S'PathDiffernce_toYuleAvg'
p1854
aS'0.0000'
p1855
aS'0.0000'
p1856
aa(lp1857
S'PathDiffernce_toUnifAvg'
p1858
aS'0.0000'
p1859
aS'0.0000'
p1860
aa(lp1861
S'Quartet'
p1862
aS'0.0000'
p1863
aS'0.0000'
p1864
aa(lp1865
S'Quartet_toYuleAvg'
p1866
aS'0.0000'
p1867
aS'0.0000'
p1868
aa(lp1869
S'Quartet_toUnifAvg'
p1870
aS'0.0000'
p1871
aS'0.0000'
p1872
aasg70
(lp1873
g72
(g73
g74
Ntp1874
Rp1875
(dp1876
g78
(dp1877
g80
(dp1878
g82
(dp1879
sg84
g85
ssg86
(dp1880
g82
(dp1881
sg84
g85
ssg89
(dp1882
g82
(dp1883
sg84
g85
ssg92
(dp1884
g82
(dp1885
sg84
g85
ssVA2b1-A2b2
p1886
(dp1887
g82
(dp1888
sg84
g85
ssVA1b1-A1b2
p1889
(dp1890
g82
(dp1891
sg84
g85
ssg101
(dp1892
g82
(dp1893
sg84
g85
ssVA1a1-A1a2
p1894
(dp1895
g82
(dp1896
sg84
g85
ssg107
(dp1897
g82
(dp1898
sg84
g85
ssg110
(dp1899
g82
(dp1900
sg84
g85
ssVRoot-A1a1-A1a2-A1b1-A1b2
p1901
(dp1902
g82
(dp1903
sg84
g85
ssVA2a1-A2a2
p1904
(dp1905
g82
(dp1906
sg84
g85
ssg119
(dp1907
g82
(dp1908
sg84
g85
ssVRoot-A1a1-A1a2-A1b1-A1b2-A2a1-A2a2
p1909
(dp1910
g82
(dp1911
sg84
g85
ssg125
(dp1912
g82
(dp1913
sg84
g85
ssVA2b1-A2b2-Root-A1a1-A1a2-A1b1-A1b2-A2a1-A2a2
p1914
(dp1915
g82
(dp1916
sg84
g85
ssVA1a1-A1a2-A1b1-A1b2
p1917
(dp1918
g82
(dp1919
sg84
g85
sssg134
(dp1920
sg136
(dp1921
g80
(dp1922
g1904
(dp1923
g140
I4
sssg86
(dp1924
g1904
(dp1925
g140
I7
sssg89
(dp1926
g1886
(dp1927
g140
I8
sssg92
(dp1928
g1886
(dp1929
g140
I7
sssg1886
(dp1930
g1914
(dp1931
g140
I5
ssg89
g1927
sg92
g1929
ssg1889
(dp1932
g119
(dp1933
g140
I3
ssg101
(dp1934
g140
I4
ssg1917
(dp1935
g140
I3
sssg101
(dp1936
g1889
g1934
ssg1894
(dp1937
g107
(dp1938
g140
I2
ssg110
(dp1939
g140
I7
ssg1917
(dp1940
g140
I7
sssg107
(dp1941
g1894
g1938
ssg110
(dp1942
g1894
g1939
ssg1901
(dp1943
g1909
(dp1944
g140
I13
ssg125
(dp1945
g140
I5
ssg1917
(dp1946
g140
I14
sssg1904
(dp1947
g80
g1923
sg86
g1925
sg1909
(dp1948
g140
I6
sssg119
(dp1949
g1889
g1933
ssg1909
(dp1950
g1914
(dp1951
g140
I5
ssg1904
g1948
sg1901
g1944
ssg125
(dp1952
g1901
g1945
ssg1914
(dp1953
g1909
g1951
sg1886
g1931
ssg1917
(dp1954
g1889
g1935
sg1901
g1946
sg1894
g1940
sssg172
g1921
sbag72
(g73
g74
Ntp1955
Rp1956
(dp1957
g78
(dp1958
g80
(dp1959
g82
(dp1960
sg84
g85
ssVRoot-A1a1-A1a2-A1b1-A1b2-A2b1-A2b2
p1961
(dp1962
g82
(dp1963
sg84
g85
ssg86
(dp1964
g82
(dp1965
sg84
g85
ssg89
(dp1966
g82
(dp1967
sg84
g85
ssg92
(dp1968
g82
(dp1969
sg84
g85
ssVA2b1-A2b2
p1970
(dp1971
g82
(dp1972
sg84
g85
ssVA1b1-A1b2
p1973
(dp1974
g82
(dp1975
sg84
g85
ssg101
(dp1976
g82
(dp1977
sg84
g85
ssVA1a1-A1a2
p1978
(dp1979
g82
(dp1980
sg84
g85
ssVA2a1-A2a2-Root-A1a1-A1a2-A1b1-A1b2-A2b1-A2b2
p1981
(dp1982
g82
(dp1983
sg84
g85
ssg107
(dp1984
g82
(dp1985
sg84
g85
ssg110
(dp1986
g82
(dp1987
sg84
g85
ssVA1a1-A1a2-A1b1-A1b2
p1988
(dp1989
g82
(dp1990
sg84
g85
ssg119
(dp1991
g82
(dp1992
sg84
g85
ssg125
(dp1993
g82
(dp1994
sg84
g85
ssVRoot-A1a1-A1a2-A1b1-A1b2
p1995
(dp1996
g82
(dp1997
sg84
g85
ssVA2a1-A2a2
p1998
(dp1999
g82
(dp2000
sg84
g85
sssg134
(dp2001
sg136
(dp2002
g80
(dp2003
g1998
(dp2004
g140
I4
sssg1961
(dp2005
g1981
(dp2006
g140
I6
ssg1995
(dp2007
g140
I11
ssg1970
(dp2008
g140
I6
sssg86
(dp2009
g1998
(dp2010
g140
I7
sssg89
(dp2011
g1970
(dp2012
g140
I8
sssg92
(dp2013
g1970
(dp2014
g140
I7
sssg1970
(dp2015
g1961
g2008
sg89
g2012
sg92
g2014
ssg1973
(dp2016
g119
(dp2017
g140
I3
ssg101
(dp2018
g140
I4
ssg1988
(dp2019
g140
I3
sssg101
(dp2020
g1973
g2018
ssg1978
(dp2021
g107
(dp2022
g140
I2
ssg110
(dp2023
g140
I6
ssg1988
(dp2024
g140
I8
sssg1981
(dp2025
g1961
g2006
sg1998
(dp2026
g140
I6
sssg107
(dp2027
g1978
g2022
ssg110
(dp2028
g1978
g2023
ssg1988
(dp2029
g1973
g2019
sg1995
(dp2030
g140
I15
ssg1978
g2024
ssg119
(dp2031
g1973
g2017
ssg125
(dp2032
g1995
(dp2033
g140
I5
sssg1995
(dp2034
g1961
g2007
sg125
g2033
sg1988
g2030
ssg1998
(dp2035
g80
g2004
sg86
g2010
sg1981
g2026
sssg172
g2002
sbasssS'tableswith 1 missingentries'
p2036
(dp2037
S'onennimputationuniform_imputedtables'
p2038
(dp2039
g9
(lp2040
(lp2041
S'Tree'
p2042
ag13
ag14
aa(lp2043
S'Tree_taxa'
p2044
ag17
ag17
aa(lp2045
S'RefTree_taxa'
p2046
ag17
ag17
aa(lp2047
S'Common_taxa'
p2048
ag17
ag17
aa(lp2049
S'R-F'
p2050
aS'0.0000'
p2051
aS'0.0000'
p2052
aa(lp2053
S'R-F_toYuleAvg'
p2054
aS'0.0000'
p2055
aS'0.0000'
p2056
aa(lp2057
S'R-F_toUnifAvg'
p2058
aS'0.0000'
p2059
aS'0.0000'
p2060
aa(lp2061
S'MatchingSplit'
p2062
aS'0.0000'
p2063
aS'0.0000'
p2064
aa(lp2065
S'MatchingSplit_toYuleAvg'
p2066
aS'0.0000'
p2067
aS'0.0000'
p2068
aa(lp2069
S'MatchingSplit_toUnifAvg'
p2070
aS'0.0000'
p2071
aS'0.0000'
p2072
aa(lp2073
S'PathDiffernce'
p2074
aS'0.0000'
p2075
aS'0.0000'
p2076
aa(lp2077
S'PathDiffernce_toYuleAvg'
p2078
aS'0.0000'
p2079
aS'0.0000'
p2080
aa(lp2081
S'PathDiffernce_toUnifAvg'
p2082
aS'0.0000'
p2083
aS'0.0000'
p2084
aa(lp2085
S'Quartet'
p2086
aS'0.0000'
p2087
aS'0.0000'
p2088
aa(lp2089
S'Quartet_toYuleAvg'
p2090
aS'0.0000'
p2091
aS'0.0000'
p2092
aa(lp2093
S'Quartet_toUnifAvg'
p2094
aS'0.0000'
p2095
aS'0.0000'
p2096
aasg70
(lp2097
g72
(g73
g74
Ntp2098
Rp2099
(dp2100
g78
(dp2101
g80
(dp2102
g82
(dp2103
sg84
g85
ssg86
(dp2104
g82
(dp2105
sg84
g85
ssg89
(dp2106
g82
(dp2107
sg84
g85
ssg92
(dp2108
g82
(dp2109
sg84
g85
ssVA2b1-A2b2
p2110
(dp2111
g82
(dp2112
sg84
g85
ssVA1b1-A1b2
p2113
(dp2114
g82
(dp2115
sg84
g85
ssg101
(dp2116
g82
(dp2117
sg84
g85
ssVA1a1-A1a2
p2118
(dp2119
g82
(dp2120
sg84
g85
ssg107
(dp2121
g82
(dp2122
sg84
g85
ssg110
(dp2123
g82
(dp2124
sg84
g85
ssVRoot-A1a1-A1a2-A1b1-A1b2
p2125
(dp2126
g82
(dp2127
sg84
g85
ssVA2a1-A2a2
p2128
(dp2129
g82
(dp2130
sg84
g85
ssg119
(dp2131
g82
(dp2132
sg84
g85
ssVRoot-A1a1-A1a2-A1b1-A1b2-A2a1-A2a2
p2133
(dp2134
g82
(dp2135
sg84
g85
ssg125
(dp2136
g82
(dp2137
sg84
g85
ssVA2b1-A2b2-Root-A1a1-A1a2-A1b1-A1b2-A2a1-A2a2
p2138
(dp2139
g82
(dp2140
sg84
g85
ssVA1a1-A1a2-A1b1-A1b2
p2141
(dp2142
g82
(dp2143
sg84
g85
sssg134
(dp2144
sg136
(dp2145
g80
(dp2146
g2128
(dp2147
g140
I4
sssg86
(dp2148
g2128
(dp2149
g140
I7
sssg89
(dp2150
g2110
(dp2151
g140
I8
sssg92
(dp2152
g2110
(dp2153
g140
I7
sssg2110
(dp2154
g2138
(dp2155
g140
I5
ssg89
g2151
sg92
g2153
ssg2113
(dp2156
g119
(dp2157
g140
I3
ssg101
(dp2158
g140
I4
ssg2141
(dp2159
g140
I3
sssg101
(dp2160
g2113
g2158
ssg2118
(dp2161
g107
(dp2162
g140
I2
ssg110
(dp2163
g140
I7
ssg2141
(dp2164
g140
I7
sssg107
(dp2165
g2118
g2162
ssg110
(dp2166
g2118
g2163
ssg2125
(dp2167
g2133
(dp2168
g140
I13
ssg125
(dp2169
g140
I5
ssg2141
(dp2170
g140
I14
sssg2128
(dp2171
g80
g2147
sg86
g2149
sg2133
(dp2172
g140
I6
sssg119
(dp2173
g2113
g2157
ssg2133
(dp2174
g2138
(dp2175
g140
I5
ssg2128
g2172
sg2125
g2168
ssg125
(dp2176
g2125
g2169
ssg2138
(dp2177
g2133
g2175
sg2110
g2155
ssg2141
(dp2178
g2113
g2159
sg2125
g2170
sg2118
g2164
sssg172
g2145
sbag72
(g73
g74
Ntp2179
Rp2180
(dp2181
g78
(dp2182
g80
(dp2183
g82
(dp2184
sg84
g85
ssg86
(dp2185
g82
(dp2186
sg84
g85
ssg89
(dp2187
g82
(dp2188
sg84
g85
ssg92
(dp2189
g82
(dp2190
sg84
g85
ssVA2b1-A2b2
p2191
(dp2192
g82
(dp2193
sg84
g85
ssVA1b1-A1b2
p2194
(dp2195
g82
(dp2196
sg84
g85
ssg101
(dp2197
g82
(dp2198
sg84
g85
ssVA1a1-A1a2
p2199
(dp2200
g82
(dp2201
sg84
g85
ssg107
(dp2202
g82
(dp2203
sg84
g85
ssg110
(dp2204
g82
(dp2205
sg84
g85
ssVRoot-A1a1-A1a2-A1b1-A1b2
p2206
(dp2207
g82
(dp2208
sg84
g85
ssVA2a1-A2a2
p2209
(dp2210
g82
(dp2211
sg84
g85
ssg119
(dp2212
g82
(dp2213
sg84
g85
ssVRoot-A1a1-A1a2-A1b1-A1b2-A2a1-A2a2
p2214
(dp2215
g82
(dp2216
sg84
g85
ssg125
(dp2217
g82
(dp2218
sg84
g85
ssVA2b1-A2b2-Root-A1a1-A1a2-A1b1-A1b2-A2a1-A2a2
p2219
(dp2220
g82
(dp2221
sg84
g85
ssVA1a1-A1a2-A1b1-A1b2
p2222
(dp2223
g82
(dp2224
sg84
g85
sssg134
(dp2225
sg136
(dp2226
g80
(dp2227
g2209
(dp2228
g140
I4
sssg86
(dp2229
g2209
(dp2230
g140
I7
sssg89
(dp2231
g2191
(dp2232
g140
I8
sssg92
(dp2233
g2191
(dp2234
g140
I8
sssg2191
(dp2235
g2219
(dp2236
g140
I5
ssg89
g2232
sg92
g2234
ssg2194
(dp2237
g119
(dp2238
g140
I3
ssg101
(dp2239
g140
I4
ssg2222
(dp2240
g140
I3
sssg101
(dp2241
g2194
g2239
ssg2199
(dp2242
g107
(dp2243
g140
I2
ssg110
(dp2244
g140
I6
ssg2222
(dp2245
g140
I7
sssg107
(dp2246
g2199
g2243
ssg110
(dp2247
g2199
g2244
ssg2206
(dp2248
g2214
(dp2249
g140
I14
ssg125
(dp2250
g140
I5
ssg2222
(dp2251
g140
I13
sssg2209
(dp2252
g80
g2228
sg86
g2230
sg2214
(dp2253
g140
I6
sssg119
(dp2254
g2194
g2238
ssg2214
(dp2255
g2219
(dp2256
g140
I5
ssg2209
g2253
sg2206
g2249
ssg125
(dp2257
g2206
g2250
ssg2219
(dp2258
g2214
g2256
sg2191
g2236
ssg2222
(dp2259
g2194
g2240
sg2206
g2251
sg2199
g2245
sssg172
g2226
sbassS'linearregressionendswithcutoff_imputedtables'
p2260
(dp2261
g9
(lp2262
(lp2263
S'Tree'
p2264
ag13
ag14
aa(lp2265
S'Tree_taxa'
p2266
ag17
ag17
aa(lp2267
S'RefTree_taxa'
p2268
ag17
ag17
aa(lp2269
S'Common_taxa'
p2270
ag17
ag17
aa(lp2271
S'R-F'
p2272
aS'0.0000'
p2273
aS'0.0000'
p2274
aa(lp2275
S'R-F_toYuleAvg'
p2276
aS'0.0000'
p2277
aS'0.0000'
p2278
aa(lp2279
S'R-F_toUnifAvg'
p2280
aS'0.0000'
p2281
aS'0.0000'
p2282
aa(lp2283
S'MatchingSplit'
p2284
aS'0.0000'
p2285
aS'0.0000'
p2286
aa(lp2287
S'MatchingSplit_toYuleAvg'
p2288
aS'0.0000'
p2289
aS'0.0000'
p2290
aa(lp2291
S'MatchingSplit_toUnifAvg'
p2292
aS'0.0000'
p2293
aS'0.0000'
p2294
aa(lp2295
S'PathDiffernce'
p2296
aS'0.0000'
p2297
aS'0.0000'
p2298
aa(lp2299
S'PathDiffernce_toYuleAvg'
p2300
aS'0.0000'
p2301
aS'0.0000'
p2302
aa(lp2303
S'PathDiffernce_toUnifAvg'
p2304
aS'0.0000'
p2305
aS'0.0000'
p2306
aa(lp2307
S'Quartet'
p2308
aS'0.0000'
p2309
aS'0.0000'
p2310
aa(lp2311
S'Quartet_toYuleAvg'
p2312
aS'0.0000'
p2313
aS'0.0000'
p2314
aa(lp2315
S'Quartet_toUnifAvg'
p2316
aS'0.0000'
p2317
aS'0.0000'
p2318
aasg70
(lp2319
g72
(g73
g74
Ntp2320
Rp2321
(dp2322
g78
(dp2323
g80
(dp2324
g82
(dp2325
sg84
g85
ssg86
(dp2326
g82
(dp2327
sg84
g85
ssg89
(dp2328
g82
(dp2329
sg84
g85
ssg92
(dp2330
g82
(dp2331
sg84
g85
ssVA2b1-A2b2
p2332
(dp2333
g82
(dp2334
sg84
g85
ssVA1b1-A1b2
p2335
(dp2336
g82
(dp2337
sg84
g85
ssg101
(dp2338
g82
(dp2339
sg84
g85
ssVA1a1-A1a2
p2340
(dp2341
g82
(dp2342
sg84
g85
ssg107
(dp2343
g82
(dp2344
sg84
g85
ssg110
(dp2345
g82
(dp2346
sg84
g85
ssVRoot-A1a1-A1a2-A1b1-A1b2
p2347
(dp2348
g82
(dp2349
sg84
g85
ssVA2a1-A2a2
p2350
(dp2351
g82
(dp2352
sg84
g85
ssg119
(dp2353
g82
(dp2354
sg84
g85
ssVRoot-A1a1-A1a2-A1b1-A1b2-A2a1-A2a2
p2355
(dp2356
g82
(dp2357
sg84
g85
ssg125
(dp2358
g82
(dp2359
sg84
g85
ssVA2b1-A2b2-Root-A1a1-A1a2-A1b1-A1b2-A2a1-A2a2
p2360
(dp2361
g82
(dp2362
sg84
g85
ssVA1a1-A1a2-A1b1-A1b2
p2363
(dp2364
g82
(dp2365
sg84
g85
sssg134
(dp2366
sg136
(dp2367
g80
(dp2368
g2350
(dp2369
g140
I4
sssg86
(dp2370
g2350
(dp2371
g140
I7
sssg89
(dp2372
g2332
(dp2373
g140
I8
sssg92
(dp2374
g2332
(dp2375
g140
I7
sssg2332
(dp2376
g2360
(dp2377
g140
I5
ssg89
g2373
sg92
g2375
ssg2335
(dp2378
g119
(dp2379
g140
I3
ssg101
(dp2380
g140
I4
ssg2363
(dp2381
g140
I3
sssg101
(dp2382
g2335
g2380
ssg2340
(dp2383
g107
(dp2384
g140
I2
ssg110
(dp2385
g140
I7
ssg2363
(dp2386
g140
I7
sssg107
(dp2387
g2340
g2384
ssg110
(dp2388
g2340
g2385
ssg2347
(dp2389
g2355
(dp2390
g140
I13
ssg125
(dp2391
g140
I5
ssg2363
(dp2392
g140
I14
sssg2350
(dp2393
g80
g2369
sg86
g2371
sg2355
(dp2394
g140
I6
sssg119
(dp2395
g2335
g2379
ssg2355
(dp2396
g2360
(dp2397
g140
I5
ssg2350
g2394
sg2347
g2390
ssg125
(dp2398
g2347
g2391
ssg2360
(dp2399
g2355
g2397
sg2332
g2377
ssg2363
(dp2400
g2335
g2381
sg2347
g2392
sg2340
g2386
sssg172
g2367
sbag72
(g73
g74
Ntp2401
Rp2402
(dp2403
g78
(dp2404
g80
(dp2405
g82
(dp2406
sg84
g85
ssg86
(dp2407
g82
(dp2408
sg84
g85
ssg89
(dp2409
g82
(dp2410
sg84
g85
ssg92
(dp2411
g82
(dp2412
sg84
g85
ssVA2b1-A2b2
p2413
(dp2414
g82
(dp2415
sg84
g85
ssVA1b1-A1b2
p2416
(dp2417
g82
(dp2418
sg84
g85
ssg101
(dp2419
g82
(dp2420
sg84
g85
ssVA1a1-A1a2
p2421
(dp2422
g82
(dp2423
sg84
g85
ssg107
(dp2424
g82
(dp2425
sg84
g85
ssg110
(dp2426
g82
(dp2427
sg84
g85
ssVRoot-A1a1-A1a2-A1b1-A1b2
p2428
(dp2429
g82
(dp2430
sg84
g85
ssVA2a1-A2a2
p2431
(dp2432
g82
(dp2433
sg84
g85
ssg119
(dp2434
g82
(dp2435
sg84
g85
ssVRoot-A1a1-A1a2-A1b1-A1b2-A2a1-A2a2
p2436
(dp2437
g82
(dp2438
sg84
g85
ssg125
(dp2439
g82
(dp2440
sg84
g85
ssVA2b1-A2b2-Root-A1a1-A1a2-A1b1-A1b2-A2a1-A2a2
p2441
(dp2442
g82
(dp2443
sg84
g85
ssVA1a1-A1a2-A1b1-A1b2
p2444
(dp2445
g82
(dp2446
sg84
g85
sssg134
(dp2447
sg136
(dp2448
g80
(dp2449
g2431
(dp2450
g140
I4
sssg86
(dp2451
g2431
(dp2452
g140
I7
sssg89
(dp2453
g2413
(dp2454
g140
I8
sssg92
(dp2455
g2413
(dp2456
g140
I8
sssg2413
(dp2457
g2441
(dp2458
g140
I5
ssg89
g2454
sg92
g2456
ssg2416
(dp2459
g119
(dp2460
g140
I3
ssg101
(dp2461
g140
I4
ssg2444
(dp2462
g140
I3
sssg101
(dp2463
g2416
g2461
ssg2421
(dp2464
g107
(dp2465
g140
I2
ssg110
(dp2466
g140
I6
ssg2444
(dp2467
g140
I7
sssg107
(dp2468
g2421
g2465
ssg110
(dp2469
g2421
g2466
ssg2428
(dp2470
g2436
(dp2471
g140
I14
ssg125
(dp2472
g140
I5
ssg2444
(dp2473
g140
I13
sssg2431
(dp2474
g80
g2450
sg86
g2452
sg2436
(dp2475
g140
I6
sssg119
(dp2476
g2416
g2460
ssg2436
(dp2477
g2441
(dp2478
g140
I5
ssg2431
g2475
sg2428
g2471
ssg125
(dp2479
g2428
g2472
ssg2441
(dp2480
g2436
g2478
sg2413
g2458
ssg2444
(dp2481
g2416
g2462
sg2428
g2473
sg2421
g2467
sssg172
g2448
sbassS'Fitchforimputation_imputedtables'
p2482
(dp2483
g9
(lp2484
(lp2485
S'Tree'
p2486
ag13
ag14
aa(lp2487
S'Tree_taxa'
p2488
ag17
ag17
aa(lp2489
S'RefTree_taxa'
p2490
ag17
ag17
aa(lp2491
S'Common_taxa'
p2492
ag17
ag17
aa(lp2493
S'R-F'
p2494
aS'0.0000'
p2495
aS'0.0000'
p2496
aa(lp2497
S'R-F_toYuleAvg'
p2498
aS'0.0000'
p2499
aS'0.0000'
p2500
aa(lp2501
S'R-F_toUnifAvg'
p2502
aS'0.0000'
p2503
aS'0.0000'
p2504
aa(lp2505
S'MatchingSplit'
p2506
aS'0.0000'
p2507
aS'0.0000'
p2508
aa(lp2509
S'MatchingSplit_toYuleAvg'
p2510
aS'0.0000'
p2511
aS'0.0000'
p2512
aa(lp2513
S'MatchingSplit_toUnifAvg'
p2514
aS'0.0000'
p2515
aS'0.0000'
p2516
aa(lp2517
S'PathDiffernce'
p2518
aS'0.0000'
p2519
aS'0.0000'
p2520
aa(lp2521
S'PathDiffernce_toYuleAvg'
p2522
aS'0.0000'
p2523
aS'0.0000'
p2524
aa(lp2525
S'PathDiffernce_toUnifAvg'
p2526
aS'0.0000'
p2527
aS'0.0000'
p2528
aa(lp2529
S'Quartet'
p2530
aS'0.0000'
p2531
aS'0.0000'
p2532
aa(lp2533
S'Quartet_toYuleAvg'
p2534
aS'0.0000'
p2535
aS'0.0000'
p2536
aa(lp2537
S'Quartet_toUnifAvg'
p2538
aS'0.0000'
p2539
aS'0.0000'
p2540
aasg70
(lp2541
g72
(g73
g74
Ntp2542
Rp2543
(dp2544
g78
(dp2545
g80
(dp2546
g82
(dp2547
sg84
g85
ssg86
(dp2548
g82
(dp2549
sg84
g85
ssg89
(dp2550
g82
(dp2551
sg84
g85
ssg92
(dp2552
g82
(dp2553
sg84
g85
ssVA2b1-A2b2
p2554
(dp2555
g82
(dp2556
sg84
g85
ssVA1b1-A1b2
p2557
(dp2558
g82
(dp2559
sg84
g85
ssg101
(dp2560
g82
(dp2561
sg84
g85
ssVA1a1-A1a2
p2562
(dp2563
g82
(dp2564
sg84
g85
ssg107
(dp2565
g82
(dp2566
sg84
g85
ssg110
(dp2567
g82
(dp2568
sg84
g85
ssVRoot-A1a1-A1a2-A1b1-A1b2
p2569
(dp2570
g82
(dp2571
sg84
g85
ssVA2a1-A2a2
p2572
(dp2573
g82
(dp2574
sg84
g85
ssg119
(dp2575
g82
(dp2576
sg84
g85
ssVRoot-A1a1-A1a2-A1b1-A1b2-A2a1-A2a2
p2577
(dp2578
g82
(dp2579
sg84
g85
ssg125
(dp2580
g82
(dp2581
sg84
g85
ssVA2b1-A2b2-Root-A1a1-A1a2-A1b1-A1b2-A2a1-A2a2
p2582
(dp2583
g82
(dp2584
sg84
g85
ssVA1a1-A1a2-A1b1-A1b2
p2585
(dp2586
g82
(dp2587
sg84
g85
sssg134
(dp2588
sg136
(dp2589
g80
(dp2590
g2572
(dp2591
g140
I4
sssg86
(dp2592
g2572
(dp2593
g140
I7
sssg89
(dp2594
g2554
(dp2595
g140
I8
sssg92
(dp2596
g2554
(dp2597
g140
I7
sssg2554
(dp2598
g2582
(dp2599
g140
I5
ssg89
g2595
sg92
g2597
ssg2557
(dp2600
g119
(dp2601
g140
I3
ssg101
(dp2602
g140
I4
ssg2585
(dp2603
g140
I3
sssg101
(dp2604
g2557
g2602
ssg2562
(dp2605
g107
(dp2606
g140
I2
ssg110
(dp2607
g140
I7
ssg2585
(dp2608
g140
I7
sssg107
(dp2609
g2562
g2606
ssg110
(dp2610
g2562
g2607
ssg2569
(dp2611
g2577
(dp2612
g140
I13
ssg125
(dp2613
g140
I5
ssg2585
(dp2614
g140
I14
sssg2572
(dp2615
g80
g2591
sg86
g2593
sg2577
(dp2616
g140
I6
sssg119
(dp2617
g2557
g2601
ssg2577
(dp2618
g2582
(dp2619
g140
I5
ssg2572
g2616
sg2569
g2612
ssg125
(dp2620
g2569
g2613
ssg2582
(dp2621
g2577
g2619
sg2554
g2599
ssg2585
(dp2622
g2557
g2603
sg2569
g2614
sg2562
g2608
sssg172
g2589
sbag72
(g73
g74
Ntp2623
Rp2624
(dp2625
g78
(dp2626
g80
(dp2627
g82
(dp2628
sg84
g85
ssg86
(dp2629
g82
(dp2630
sg84
g85
ssg89
(dp2631
g82
(dp2632
sg84
g85
ssg92
(dp2633
g82
(dp2634
sg84
g85
ssVA2b1-A2b2
p2635
(dp2636
g82
(dp2637
sg84
g85
ssVA1b1-A1b2
p2638
(dp2639
g82
(dp2640
sg84
g85
ssg101
(dp2641
g82
(dp2642
sg84
g85
ssVA1a1-A1a2
p2643
(dp2644
g82
(dp2645
sg84
g85
ssg107
(dp2646
g82
(dp2647
sg84
g85
ssg110
(dp2648
g82
(dp2649
sg84
g85
ssVRoot-A1a1-A1a2-A1b1-A1b2
p2650
(dp2651
g82
(dp2652
sg84
g85
ssVA2a1-A2a2
p2653
(dp2654
g82
(dp2655
sg84
g85
ssg119
(dp2656
g82
(dp2657
sg84
g85
ssVRoot-A1a1-A1a2-A1b1-A1b2-A2a1-A2a2
p2658
(dp2659
g82
(dp2660
sg84
g85
ssg125
(dp2661
g82
(dp2662
sg84
g85
ssVA2b1-A2b2-Root-A1a1-A1a2-A1b1-A1b2-A2a1-A2a2
p2663
(dp2664
g82
(dp2665
sg84
g85
ssVA1a1-A1a2-A1b1-A1b2
p2666
(dp2667
g82
(dp2668
sg84
g85
sssg134
(dp2669
sg136
(dp2670
g80
(dp2671
g2653
(dp2672
g140
I4
sssg86
(dp2673
g2653
(dp2674
g140
I7
sssg89
(dp2675
g2635
(dp2676
g140
I8
sssg92
(dp2677
g2635
(dp2678
g140
I7
sssg2635
(dp2679
g2663
(dp2680
g140
I5
ssg89
g2676
sg92
g2678
ssg2638
(dp2681
g119
(dp2682
g140
I3
ssg101
(dp2683
g140
I4
ssg2666
(dp2684
g140
I3
sssg101
(dp2685
g2638
g2683
ssg2643
(dp2686
g107
(dp2687
g140
I2
ssg110
(dp2688
g140
I7
ssg2666
(dp2689
g140
I7
sssg107
(dp2690
g2643
g2687
ssg110
(dp2691
g2643
g2688
ssg2650
(dp2692
g2658
(dp2693
g140
I13
ssg125
(dp2694
g140
I5
ssg2666
(dp2695
g140
I14
sssg2653
(dp2696
g80
g2672
sg86
g2674
sg2658
(dp2697
g140
I6
sssg119
(dp2698
g2638
g2682
ssg2658
(dp2699
g2663
(dp2700
g140
I5
ssg2653
g2697
sg2650
g2693
ssg125
(dp2701
g2650
g2694
ssg2663
(dp2702
g2658
g2700
sg2635
g2680
ssg2666
(dp2703
g2638
g2684
sg2650
g2695
sg2643
g2689
sssg172
g2670
sbassssS'originaltree'
p2704
g72
(g73
g74
Ntp2705
Rp2706
(dp2707
g78
(dp2708
g80
(dp2709
g82
(dp2710
sg84
g85
ssg86
(dp2711
g82
(dp2712
sg84
g85
ssg89
(dp2713
g82
(dp2714
sg84
g85
ssg92
(dp2715
g82
(dp2716
sg84
g85
ssVA2b1-A2b2
p2717
(dp2718
g82
(dp2719
sg84
g85
ssVA1b1-A1b2
p2720
(dp2721
g82
(dp2722
sg84
g85
ssg101
(dp2723
g82
(dp2724
sg84
g85
ssVA1a1-A1a2
p2725
(dp2726
g82
(dp2727
sg84
g85
ssg107
(dp2728
g82
(dp2729
sg84
g85
ssg110
(dp2730
g82
(dp2731
sg84
g85
ssVRoot-A1a1-A1a2-A1b1-A1b2
p2732
(dp2733
g82
(dp2734
sg84
g85
ssVA2a1-A2a2
p2735
(dp2736
g82
(dp2737
sg84
g85
ssg119
(dp2738
g82
(dp2739
sg84
g85
ssVRoot-A1a1-A1a2-A1b1-A1b2-A2a1-A2a2
p2740
(dp2741
g82
(dp2742
sg84
g85
ssg125
(dp2743
g82
(dp2744
sg84
g85
ssVA2b1-A2b2-Root-A1a1-A1a2-A1b1-A1b2-A2a1-A2a2
p2745
(dp2746
g82
(dp2747
sg84
g85
ssVA1a1-A1a2-A1b1-A1b2
p2748
(dp2749
g82
(dp2750
sg84
g85
sssg134
(dp2751
sg136
(dp2752
g80
(dp2753
g2735
(dp2754
g140
I4
sssg86
(dp2755
g2735
(dp2756
g140
I7
sssg89
(dp2757
g2717
(dp2758
g140
I8
sssg92
(dp2759
g2717
(dp2760
g140
I7
sssg2717
(dp2761
g2745
(dp2762
g140
I5
ssg89
g2758
sg92
g2760
ssg2720
(dp2763
g119
(dp2764
g140
I3
ssg101
(dp2765
g140
I4
ssg2748
(dp2766
g140
I3
sssg101
(dp2767
g2720
g2765
ssg2725
(dp2768
g107
(dp2769
g140
I2
ssg110
(dp2770
g140
I7
ssg2748
(dp2771
g140
I7
sssg107
(dp2772
g2725
g2769
ssg110
(dp2773
g2725
g2770
ssg2732
(dp2774
g2740
(dp2775
g140
I13
ssg125
(dp2776
g140
I5
ssg2748
(dp2777
g140
I14
sssg2735
(dp2778
g80
g2754
sg86
g2756
sg2740
(dp2779
g140
I6
sssg119
(dp2780
g2720
g2764
ssg2740
(dp2781
g2745
(dp2782
g140
I5
ssg2735
g2779
sg2732
g2775
ssg125
(dp2783
g2732
g2776
ssg2745
(dp2784
g2740
g2782
sg2717
g2762
ssg2748
(dp2785
g2720
g2766
sg2732
g2777
sg2725
g2771
sssg172
g2752
sbss.(dp0
S'Quartet_toUnifAvg'
p1
(dp2
(S'data_for_tables2a'
p3
S'missingentriestablesdata_madeby_rauvfmlbiaroc'
p4
S'tableswith 1 missingentries'
p5
S'Fitchforimputation_imputedtables'
p6
tp7
(lp8
F0.0
aF0.0
as(g3
S'missingentriestablesdata_madeby_rauvfm'
p9
S'tableswith 1 missingentries'
p10
S'onennimputationuniform_imputedtables'
p11
tp12
(lp13
F0.0
aF0.0
as(g3
g4
g5
S'linearregressionendswithcutoff_imputedtables'
p14
tp15
(lp16
F0.0
aF0.0
as(g3
g9
S'tableswith 2 missingentries'
p17
S'linearregressionendswithcutoff_imputedtables'
p18
tp19
(lp20
F0.0
aF0.0
as(g3
g9
g10
S'Fitchforimputation_imputedtables'
p21
tp22
(lp23
F0.0
aF0.0
as(g3
g4
S'tableswith 2 missingentries'
p24
S'linearregressionendswithcutoff_imputedtables'
p25
tp26
(lp27
F0.0
aF0.0
as(g3
g9
g10
S'linearregressionendswithcutoff_imputedtables'
p28
tp29
(lp30
F0.0
aF0.0
as(g3
g4
g24
S'onennimputationuniform_imputedtables'
p31
tp32
(lp33
F0.0
aF0.0
as(g3
g9
g17
S'Fitchforimputation_imputedtables'
p34
tp35
(lp36
F0.0
aF0.0
as(g3
g4
g5
S'onennimputationuniform_imputedtables'
p37
tp38
(lp39
F0.0
aF0.0
as(g3
g9
g17
S'onennimputationuniform_imputedtables'
p40
tp41
(lp42
F0.0
aF0.0
as(g3
g4
g24
S'Fitchforimputation_imputedtables'
p43
tp44
(lp45
F0.0
aF0.0
assS'MatchingSplit_toUnifAvg'
p46
(dp47
(g3
g4
g5
g6
tp48
(lp49
F0.0
aF0.0
as(g3
g9
g10
g11
tp50
(lp51
F0.0
aF0.0
as(g3
g4
g5
g14
tp52
(lp53
F0.0
aF0.0
as(g3
g9
g17
g18
tp54
(lp55
F0.0
aF0.0
as(g3
g9
g10
g21
tp56
(lp57
F0.0
aF0.0
as(g3
g4
g24
g25
tp58
(lp59
F0.0
aF0.0
as(g3
g9
g10
g28
tp60
(lp61
F0.0
aF0.0
as(g3
g4
g24
g31
tp62
(lp63
F0.0
aF0.0
as(g3
g9
g17
g34
tp64
(lp65
F0.0
aF0.0
as(g3
g4
g5
g37
tp66
(lp67
F0.0
aF0.0
as(g3
g9
g17
g40
tp68
(lp69
F0.0
aF0.0
as(g3
g4
g24
g43
tp70
(lp71
F0.0
aF0.0
assS'PathDiffernce_toUnifAvg'
p72
(dp73
(g3
g4
g5
g6
tp74
(lp75
F0.0
aF0.0
as(g3
g9
g10
g11
tp76
(lp77
F0.0
aF0.0
as(g3
g4
g5
g14
tp78
(lp79
F0.0
aF0.0
as(g3
g9
g17
g18
tp80
(lp81
F0.0
aF0.0
as(g3
g9
g10
g21
tp82
(lp83
F0.0
aF0.0
as(g3
g4
g24
g25
tp84
(lp85
F0.0
aF0.0
as(g3
g9
g10
g28
tp86
(lp87
F0.0
aF0.0
as(g3
g4
g24
g31
tp88
(lp89
F0.0
aF0.0
as(g3
g9
g17
g34
tp90
(lp91
F0.0
aF0.0
as(g3
g4
g5
g37
tp92
(lp93
F0.0
aF0.0
as(g3
g9
g17
g40
tp94
(lp95
F0.0
aF0.0
as(g3
g4
g24
g43
tp96
(lp97
F0.0
aF0.0
assS'MatchingSplit_toYuleAvg'
p98
(dp99
(g3
g4
g5
g6
tp100
(lp101
F0.0
aF0.0
as(g3
g9
g10
g11
tp102
(lp103
F0.0
aF0.0
as(g3
g4
g5
g14
tp104
(lp105
F0.0
aF0.0
as(g3
g9
g17
g18
tp106
(lp107
F0.0
aF0.0
as(g3
g9
g10
g21
tp108
(lp109
F0.0
aF0.0
as(g3
g4
g24
g25
tp110
(lp111
F0.0
aF0.0
as(g3
g9
g10
g28
tp112
(lp113
F0.0
aF0.0
as(g3
g4
g24
g31
tp114
(lp115
F0.0
aF0.0
as(g3
g9
g17
g34
tp116
(lp117
F0.0
aF0.0
as(g3
g4
g5
g37
tp118
(lp119
F0.0
aF0.0
as(g3
g9
g17
g40
tp120
(lp121
F0.0
aF0.0
as(g3
g4
g24
g43
tp122
(lp123
F0.0
aF0.0
assS'MatchingSplit'
p124
(dp125
(g3
g4
g5
g6
tp126
(lp127
F0.0
aF0.0
as(g3
g9
g10
g11
tp128
(lp129
F0.0
aF0.0
as(g3
g4
g5
g14
tp130
(lp131
F0.0
aF0.0
as(g3
g9
g17
g18
tp132
(lp133
F0.0
aF0.0
as(g3
g9
g10
g21
tp134
(lp135
F0.0
aF0.0
as(g3
g4
g24
g25
tp136
(lp137
F0.0
aF0.0
as(g3
g9
g10
g28
tp138
(lp139
F0.0
aF0.0
as(g3
g4
g24
g31
tp140
(lp141
F0.0
aF0.0
as(g3
g9
g17
g34
tp142
(lp143
F0.0
aF0.0
as(g3
g4
g5
g37
tp144
(lp145
F0.0
aF0.0
as(g3
g9
g17
g40
tp146
(lp147
F0.0
aF0.0
as(g3
g4
g24
g43
tp148
(lp149
F0.0
aF0.0
assS'R-F_toYuleAvg'
p150
(dp151
(g3
g4
g5
g6
tp152
(lp153
F0.0
aF0.0
as(g3
g9
g10
g11
tp154
(lp155
F0.0
aF0.0
as(g3
g4
g5
g14
tp156
(lp157
F0.0
aF0.0
as(g3
g9
g17
g18
tp158
(lp159
F0.0
aF0.0
as(g3
g9
g10
g21
tp160
(lp161
F0.0
aF0.0
as(g3
g4
g24
g25
tp162
(lp163
F0.0
aF0.0
as(g3
g9
g10
g28
tp164
(lp165
F0.0
aF0.0
as(g3
g4
g24
g31
tp166
(lp167
F0.0
aF0.0
as(g3
g9
g17
g34
tp168
(lp169
F0.0
aF0.0
as(g3
g4
g5
g37
tp170
(lp171
F0.0
aF0.0
as(g3
g9
g17
g40
tp172
(lp173
F0.0
aF0.0
as(g3
g4
g24
g43
tp174
(lp175
F0.0
aF0.0
assS'R-F'
p176
(dp177
(g3
g4
g5
g6
tp178
(lp179
F0.0
aF0.0
as(g3
g9
g10
g11
tp180
(lp181
F0.0
aF0.0
as(g3
g4
g5
g14
tp182
(lp183
F0.0
aF0.0
as(g3
g9
g17
g18
tp184
(lp185
F0.0
aF0.0
as(g3
g9
g10
g21
tp186
(lp187
F0.0
aF0.0
as(g3
g4
g24
g25
tp188
(lp189
F0.0
aF0.0
as(g3
g9
g10
g28
tp190
(lp191
F0.0
aF0.0
as(g3
g4
g24
g31
tp192
(lp193
F0.0
aF0.0
as(g3
g9
g17
g34
tp194
(lp195
F0.0
aF0.0
as(g3
g4
g5
g37
tp196
(lp197
F0.0
aF0.0
as(g3
g9
g17
g40
tp198
(lp199
F0.0
aF0.0
as(g3
g4
g24
g43
tp200
(lp201
F0.0
aF0.0
assS'Quartet_toYuleAvg'
p202
(dp203
(g3
g4
g5
g6
tp204
(lp205
F0.0
aF0.0
as(g3
g9
g10
g11
tp206
(lp207
F0.0
aF0.0
as(g3
g4
g5
g14
tp208
(lp209
F0.0
aF0.0
as(g3
g9
g17
g18
tp210
(lp211
F0.0
aF0.0
as(g3
g9
g10
g21
tp212
(lp213
F0.0
aF0.0
as(g3
g4
g24
g25
tp214
(lp215
F0.0
aF0.0
as(g3
g9
g10
g28
tp216
(lp217
F0.0
aF0.0
as(g3
g4
g24
g31
tp218
(lp219
F0.0
aF0.0
as(g3
g9
g17
g34
tp220
(lp221
F0.0
aF0.0
as(g3
g4
g5
g37
tp222
(lp223
F0.0
aF0.0
as(g3
g9
g17
g40
tp224
(lp225
F0.0
aF0.0
as(g3
g4
g24
g43
tp226
(lp227
F0.0
aF0.0
assS'R-F_toUnifAvg'
p228
(dp229
(g3
g4
g5
g6
tp230
(lp231
F0.0
aF0.0
as(g3
g9
g10
g11
tp232
(lp233
F0.0
aF0.0
as(g3
g4
g5
g14
tp234
(lp235
F0.0
aF0.0
as(g3
g9
g17
g18
tp236
(lp237
F0.0
aF0.0
as(g3
g9
g10
g21
tp238
(lp239
F0.0
aF0.0
as(g3
g4
g24
g25
tp240
(lp241
F0.0
aF0.0
as(g3
g9
g10
g28
tp242
(lp243
F0.0
aF0.0
as(g3
g4
g24
g31
tp244
(lp245
F0.0
aF0.0
as(g3
g9
g17
g34
tp246
(lp247
F0.0
aF0.0
as(g3
g4
g5
g37
tp248
(lp249
F0.0
aF0.0
as(g3
g9
g17
g40
tp250
(lp251
F0.0
aF0.0
as(g3
g4
g24
g43
tp252
(lp253
F0.0
aF0.0
assS'PathDiffernce'
p254
(dp255
(g3
g4
g5
g6
tp256
(lp257
F0.0
aF0.0
as(g3
g9
g10
g11
tp258
(lp259
F0.0
aF0.0
as(g3
g4
g5
g14
tp260
(lp261
F0.0
aF0.0
as(g3
g9
g17
g18
tp262
(lp263
F0.0
aF0.0
as(g3
g9
g10
g21
tp264
(lp265
F0.0
aF0.0
as(g3
g4
g24
g25
tp266
(lp267
F0.0
aF0.0
as(g3
g9
g10
g28
tp268
(lp269
F0.0
aF0.0
as(g3
g4
g24
g31
tp270
(lp271
F0.0
aF0.0
as(g3
g9
g17
g34
tp272
(lp273
F0.0
aF0.0
as(g3
g4
g5
g37
tp274
(lp275
F0.0
aF0.0
as(g3
g9
g17
g40
tp276
(lp277
F0.0
aF0.0
as(g3
g4
g24
g43
tp278
(lp279
F0.0
aF0.0
assS'Quartet'
p280
(dp281
(g3
g4
g5
g6
tp282
(lp283
F0.0
aF0.0
as(g3
g9
g10
g11
tp284
(lp285
F0.0
aF0.0
as(g3
g4
g5
g14
tp286
(lp287
F0.0
aF0.0
as(g3
g9
g17
g18
tp288
(lp289
F0.0
aF0.0
as(g3
g9
g10
g21
tp290
(lp291
F0.0
aF0.0
as(g3
g4
g24
g25
tp292
(lp293
F0.0
aF0.0
as(g3
g9
g10
g28
tp294
(lp295
F0.0
aF0.0
as(g3
g4
g24
g31
tp296
(lp297
F0.0
aF0.0
as(g3
g9
g17
g34
tp298
(lp299
F0.0
aF0.0
as(g3
g4
g5
g37
tp300
(lp301
F0.0
aF0.0
as(g3
g9
g17
g40
tp302
(lp303
F0.0
aF0.0
as(g3
g4
g24
g43
tp304
(lp305
F0.0
aF0.0
assS'PathDiffernce_toYuleAvg'
p306
(dp307
(g3
g4
g5
g6
tp308
(lp309
F0.0
aF0.0
as(g3
g9
g10
g11
tp310
(lp311
F0.0
aF0.0
as(g3
g4
g5
g14
tp312
(lp313
F0.0
aF0.0
as(g3
g9
g17
g18
tp314
(lp315
F0.0
aF0.0
as(g3
g9
g10
g21
tp316
(lp317
F0.0
aF0.0
as(g3
g4
g24
g25
tp318
(lp319
F0.0
aF0.0
as(g3
g9
g10
g28
tp320
(lp321
F0.0
aF0.0
as(g3
g4
g24
g31
tp322
(lp323
F0.0
aF0.0
as(g3
g9
g17
g34
tp324
(lp325
F0.0
aF0.0
as(g3
g4
g5
g37
tp326
(lp327
F0.0
aF0.0
as(g3
g9
g17
g40
tp328
(lp329
F0.0
aF0.0
as(g3
g4
g24
g43
tp330
(lp331
F0.0
aF0.0
ass.