(dp0
S'toimpute'
p1
I01
sS'data_for_tables2a'
p2
(dp3
S'missingentriestablesdata_madeby_rauvfmlbiaroc'
p4
(dp5
S'tableswith 2 missingentries'
p6
(dp7
S'onennimputationuniform_imputedtables'
p8
(dp9
S'tables'
p10
(lp11
(lp12
(lp13
VTable S2a: Cell identifiers for CCT A
p14
aI1721
aI352
aVD4S3042
p15
aI2868
aI8709
aVCSF
p16
aI3866
aVD16S539
p17
aI7514
aI9607
aVD5S2084
p18
aVD12S86
p19
aI7959
aI9847
aI3326
aI707
aI6458
aI104439
aI6005
aVAC49
p20
aVdxs556
p21
aVAAG30
p22
aI5284
aI5106
aI8392
aI8333
aI7381
aI5994
aI5802
aVTP53
p23
aI6424
aI2068
aI7509
aVAAG44
p24
aI6248
aVHEXMUL
p25
aI104334
aa(lp26
VRoot
p27
aI0
aI0
aI0
aI0
aI0
aI0
aI0
aI0
aI0
aI0
aI0
aI0
aI0
aI0
aI0
aI0
aI0
aI0
aI0
aI0
aI0
aI0
aI0
aI0
aI0
aI0
aI0
aI0
aI0
aI0
aI0
aI0
aI0
aI0
aI0
aI0
aI0
aa(lp28
VA1a1
p29
aI1
aI0
aI0
aI-1
aI-2
aI0
aI-1
aI0
aI0
aI0
aI-2
aI-4
aI-1
aI2
aI0
aI-1
aI0
aI0
aI0
aI-1
aI-1
aI0
aI-1
aI-2
aI0
aI1
aI1
aI1
aI0
aI0
aI2
aI0
aI0
aI0
aI-2
aI0
aI0
aa(lp30
VA1a2
p31
aI1
aI-2
aI0
aI-1
aI-3
aI0
aI-1
aI0
aI0
aI0
aI-2
aI-4
aI-2
aI3
aI-1
aI0
aI0
aI0
aI0
aI-1
aI-1
aI0
aI-1
aI-2
aI0
aI1
aI0
aI0
aI0
aI0
aI2
aI0
aI0
aI0
aI-2
aI0
aI0
aa(lp32
VA1b1
p33
aI1
aI0
aI1
aI-2
aI-2
aI0
aI-1
aI0
aI0
aI0
aI-2
aI-2
aI-1
aI-1
aI2
aI-1
aI0
aI1
aI0
aI-1
aI-1
aI0
aI-1
aI-2
aI0
aI0
aI1
aI1
aI0
aI-1
aI1
aI0
aI0
aI-1
aI-1
aI0
aI0
aa(lp34
VA1b2
p35
aI1
aI-1
aI1
aI-1
aI-3
aI0
aI-1
aI0
aI0
aI0
aI-2
aI-2
aI0
aI-1
aI2
aI-1
aI0
aI1
aI0
aI-1
aI-1
aI0
aI-1
aI-2
aI0
aI0
aI0
aI1
aI0
aI-1
aI2
aI0
aI0
aI-1
aI-1
aI0
aI-1
aa(lp36
VA2a1
p37
aI-1
aI2
aI0
aI-4
aI0
aI-1
aI0
aI1
aI-1
aI0
aI0
aI1
aI-2
aI-2
aI1
aI-2
aI0
aI-1
aI-1
aI2
aI0
aI1
aI0
aI1
aI0
aI0
aI0
aI-1
aI0
aI-2
aI0
aI-1
aI2
aI1
aI0
aI0
aI-2
aa(lp38
VA2a2
p39
aI0
aI2
aI0
aI-3
aI1
aI-1
aI0
aI1
aI-1
aI0
aI-1
aI2
aI0
aI-3
aI1
aI-2
aI0
aI0
aI0
aI2
aI0
aI1
aI0
aI-1
aI0
aI0
aI0
aI-1
aI0
aI-2
aI0
aI-1
aI2
aI1
aI0
aI0
aI-2
aa(lp40
VA2b1
p41
aI0
aI0
aI0
aI-2
aI2
aI-1
aI0
aI1
aI-1
aI0
aI0
aI2
aI1
aI-3
aI0
aI-2
aI0
aI-1
aI0
aI0
aI0
aI1
aI0
aI0
aI-1
aI0
aI0
aI-3
aI0
aI0
aI-2
aI-1
aI-1
aI1
aI0
aI0
aI-4
aa(lp42
VA2b2
p43
aI0
aI-2
aI0
aI-2
aI2
aI-1
aI0
aI1
aI-1
aI-1
aI0
aI2
aI-1
aI-1
aI0
aI-2
aI0
aI-1
aI0
aI1
aI-1
aI1
aI0
aI2
aI-1
aI0
aI-1
aI-1
aI0
aI-1
aI-1
aI-1
aI-1
aI1
aI0
aI0
aI-4
aaa(lp44
(lp45
g14
aI1721
aI352
ag15
aI2868
aI8709
ag16
aI3866
ag17
aI7514
aI9607
ag18
ag19
aI7959
aI9847
aI3326
aI707
aI6458
aI104439
aI6005
ag20
ag21
ag22
aI5284
aI5106
aI8392
aI8333
aI7381
aI5994
aI5802
ag23
aI6424
aI2068
aI7509
ag24
aI6248
ag25
aI104334
aa(lp46
g27
aI0
aI0
aI0
aI0
aI0
aI0
aI0
aI0
aI0
aI0
aI0
aI0
aI0
aI0
aI0
aI0
aI0
aI0
aI0
aI0
aI0
aI0
aI0
aI0
aI0
aI0
aI0
aI0
aI0
aI0
aI0
aI0
aI0
aI0
aI0
aI0
aI0
aa(lp47
g29
aI1
aI0
aI0
aI-1
aI-2
aI0
aI-1
aI0
aI0
aI0
aI-2
aI-4
aI-1
aI2
aI0
aI-1
aI0
aI0
aI0
aI-1
aI-1
aI0
aI-1
aI-2
aI0
aI1
aI1
aI1
aI0
aI0
aI2
aI0
aI0
aI0
aI-2
aI0
aI0
aa(lp48
g31
aI1
aI-2
aI0
aI-1
aI-3
aI0
aI-1
aI0
aI0
aI0
aI-2
aI-4
aI-2
aI3
aI-1
aI0
aI0
aI0
aI0
aI-1
aI-1
aI0
aI-1
aI-2
aI0
aI1
aI0
aI0
aI0
aI0
aI2
aI0
aI0
aI0
aI-2
aI0
aI0
aa(lp49
g33
aI1
aI0
aI1
aI-2
aI-2
aI0
aI-1
aI0
aI0
aI0
aI-2
aI-2
aI-1
aI-1
aI2
aI-1
aI0
aI1
aI0
aI-1
aI-1
aI0
aI-1
aI-2
aI0
aI0
aI1
aI1
aI0
aI-1
aI1
aI0
aI0
aI-1
aI-1
aI0
aI0
aa(lp50
g35
aI1
aI-1
aI1
aI-1
aI-3
aI0
aI-1
aI0
aI0
aI0
aI-2
aI-2
aI0
aI-1
aI2
aI-1
aI0
aI1
aI0
aI-1
aI-1
aI0
aI-1
aI-2
aI0
aI0
aI0
aI1
aI0
aI-1
aI2
aI0
aI0
aI-1
aI-1
aI0
aI-1
aa(lp51
g37
aI-1
aI2
aI0
aI-4
aI0
aI-1
aI0
aI1
aI-1
aI0
aI0
aI1
aI-2
aI-2
aI1
aI-2
aI0
aI-1
aI-1
aI2
aI0
aI1
aI0
aI1
aI0
aI0
aI0
aI-1
aI0
aI-2
aI0
aI-1
aI2
aI1
aI0
aI0
aI-2
aa(lp52
g39
aI0
aI2
aI0
aI-3
aI1
aI-1
aI0
aI1
aI-1
aI0
aI-1
aI2
aI0
aI-3
aI1
aI-2
aI0
aI0
aI0
aI2
aI0
aI1
aI0
aI-1
aI0
aI0
aI0
aI-1
aI0
aI-2
aI0
aI-1
aI2
aI1
aI0
aI0
aI-2
aa(lp53
g41
aI0
aI0
aI0
aI-2
aI2
aI-1
aI0
aI1
aI-1
aI0
aI0
aI2
aI1
aI-3
aI0
aI-2
aI0
aI-1
aI0
aI0
aI0
aI1
aI0
aI0
aI-1
aI0
aI0
aI-3
aI0
aI0
aI-2
aI-1
aI-1
aI1
aI0
aI0
aI-4
aa(lp54
g43
aI0
aI-2
aI0
aI-2
aI2
aI-1
aI0
aI1
aI-1
aI-1
aI0
aI2
aI-1
aI-1
aI0
aI-2
aI0
aI-1
aI0
aI1
aI-1
aI1
aI0
aI2
aI-1
aI0
aI-1
aI-1
aI0
aI-1
aI-1
aI-1
aI-1
aI1
aI0
aI0
aI-4
aaassg10
(lp55
(lp56
(lp57
g14
aI1721
aI352
ag15
aI2868
aI8709
ag16
aI3866
ag17
aI7514
aI9607
ag18
ag19
aI7959
aI9847
aI3326
aI707
aI6458
aI104439
aI6005
ag20
ag21
ag22
aI5284
aI5106
aI8392
aI8333
aI7381
aI5994
aI5802
ag23
aI6424
aI2068
aI7509
ag24
aI6248
ag25
aI104334
aa(lp58
g27
aI0
aI0
aI0
aI0
aI0
aI0
aI0
aI0
aI0
aI0
aI0
aI0
aI0
aI0
aI0
aI0
aI0
aI0
aI0
aI0
aI0
aI0
aI0
aI0
aI0
aI0
aI0
aI0
aI0
aI0
aI0
aI0
aI0
aI0
aI0
aI0
aI0
aa(lp59
g29
aI1
aI0
aI0
aI-1
aI-2
aI0
aI-1
aI0
aI0
aI0
aI-2
aI-4
aI-1
aI2
aI0
aI-1
aI0
aI0
aI0
aI-1
aI-1
aI0
aI-1
aI-2
aI0
aI1
aI1
aI1
aI0
aI0
aI2
aI0
aI0
aI0
aI-2
aI0
aI0
aa(lp60
g31
aI1
aI-2
aI0
aI-1
aI-3
aI0
aI-1
aI0
aI0
aI0
aI-2
aI-4
aI-2
aI3
aI-1
aI0
aI0
aI0
aI0
aI-1
aI-1
aI0
aI-1
aI-2
aI0
aI1
aI0
aI0
aI0
aI0
aI2
aI0
aI0
aI0
aI-2
aI0
aI0
aa(lp61
g33
aI1
aI0
aI1
aI-2
aI-2
aI0
aI-1
aI0
aI0
aI0
aI-2
aI-2
aI-1
aI-1
aI2
aI-1
aI0
aI1
aI0
aI-1
aI-1
aI0
aI-1
aI-2
aI0
aI0
aI1
aI1
aI0
aI-1
aI1
aI0
aI0
aI-1
aI-1
aI0
aI0
aa(lp62
g35
aI1
aI-1
aI1
aI-1
aI-3
aI0
aI-1
aI0
aI0
aI0
aI-2
aI-2
aI0
aI-1
aI2
aI-1
aI0
aI1
aI0
aI-1
aI-1
aI0
aI-1
aI-2
aI0
aI0
aI0
aI1
aI0
aI-1
aI2
aI0
aI0
aI-1
aI-1
aI0
aI-1
aa(lp63
g37
aI-1
aI2
aI0
aI-4
aI0
aI-1
aI0
aI1
aI-1
aI0
aI0
aI1
aI-2
aI-2
aI1
aI-2
aI0
aI-1
aI-1
aI2
aI0
aI1
aI0
aI1
aI0
aI0
aI0
aI-1
aI0
aI-2
aI0
aI-1
aI2
aI1
aI0
aI0
aI-2
aa(lp64
g39
aI0
aI2
aI0
aI-3
aI1
aI-1
aI0
aI1
aI-1
aI0
aI-1
aI2
aI0
aI-3
aI1
aI-2
aI0
aI0
aI0
aI2
aI0
aI1
aI0
aI-1
aI0
aS'X'
p65
aI0
aI-1
aI0
aI-2
aI0
ag65
aI2
aI1
aI0
aI0
aI-2
aa(lp66
g41
aI0
aI0
aI0
aI-2
aI2
aI-1
aI0
aI1
aI-1
aI0
aI0
aI2
aI1
aI-3
aI0
aI-2
aI0
aI-1
aI0
aI0
aI0
aI1
aI0
aI0
aI-1
aI0
aI0
aI-3
aI0
aI0
aI-2
aI-1
aI-1
aI1
aI0
aI0
aI-4
aa(lp67
g43
aI0
aI-2
aI0
aI-2
aI2
aI-1
aI0
aI1
aI-1
aI-1
aI0
aI2
aI-1
aI-1
aI0
aI-2
aI0
aI-1
aI0
aI1
aI-1
aI1
aI0
aI2
aI-1
aI0
aI-1
aI-1
aI0
aI-1
aI-1
aI-1
aI-1
aI1
aI0
aI0
aI-4
aaa(lp68
(lp69
g14
aI1721
aI352
ag15
aI2868
aI8709
ag16
aI3866
ag17
aI7514
aI9607
ag18
ag19
aI7959
aI9847
aI3326
aI707
aI6458
aI104439
aI6005
ag20
ag21
ag22
aI5284
aI5106
aI8392
aI8333
aI7381
aI5994
aI5802
ag23
aI6424
aI2068
aI7509
ag24
aI6248
ag25
aI104334
aa(lp70
g27
aI0
aI0
aI0
aI0
aI0
aI0
aI0
aI0
aI0
aI0
aI0
aI0
aI0
aI0
aI0
aI0
aI0
aI0
aI0
aI0
aI0
aI0
aI0
aI0
aI0
aI0
aI0
aI0
aI0
aI0
aI0
aI0
aI0
aI0
aI0
aI0
aI0
aa(lp71
g29
aI1
aI0
aI0
aI-1
aI-2
aI0
aI-1
aI0
aI0
aI0
aI-2
aI-4
aI-1
aI2
aI0
aI-1
aI0
aI0
aI0
aI-1
aI-1
aI0
aI-1
aI-2
aI0
aI1
aI1
aI1
aI0
aI0
aI2
aI0
aI0
aI0
aI-2
aI0
aI0
aa(lp72
g31
aI1
aI-2
aI0
aI-1
aI-3
aI0
aI-1
aI0
aI0
aI0
aI-2
aI-4
aI-2
aI3
aI-1
aI0
aI0
aI0
aI0
aI-1
aI-1
aI0
aI-1
aI-2
aI0
aI1
aI0
aI0
aI0
aI0
aI2
aI0
aI0
aI0
aI-2
aI0
aI0
aa(lp73
g33
aI1
aI0
aI1
aI-2
aI-2
aI0
aI-1
aI0
aI0
aI0
aI-2
aI-2
aI-1
aI-1
aI2
aI-1
aI0
aI1
aI0
aI-1
aI-1
aI0
aI-1
aI-2
aI0
aI0
aI1
aI1
aI0
aI-1
aI1
aI0
aI0
aI-1
aI-1
aI0
aI0
aa(lp74
g35
ag65
aI-1
aI1
aI-1
aI-3
aI0
aI-1
aI0
aI0
aI0
aI-2
aI-2
aI0
aI-1
aI2
aI-1
aI0
aI1
aI0
aI-1
aI-1
aI0
aI-1
aI-2
aI0
aI0
aI0
aI1
aI0
aI-1
aI2
aI0
aI0
aI-1
aI-1
aI0
aI-1
aa(lp75
g37
aI-1
ag65
aI0
aI-4
aI0
aI-1
aI0
aI1
aI-1
aI0
aI0
aI1
aI-2
aI-2
aI1
aI-2
aI0
aI-1
aI-1
aI2
aI0
aI1
aI0
aI1
aI0
aI0
aI0
aI-1
aI0
aI-2
aI0
aI-1
aI2
aI1
aI0
aI0
aI-2
aa(lp76
g39
aI0
aI2
aI0
aI-3
aI1
aI-1
aI0
aI1
aI-1
aI0
aI-1
aI2
aI0
aI-3
aI1
aI-2
aI0
aI0
aI0
aI2
aI0
aI1
aI0
aI-1
aI0
aI0
aI0
aI-1
aI0
aI-2
aI0
aI-1
aI2
aI1
aI0
aI0
aI-2
aa(lp77
g41
aI0
aI0
aI0
aI-2
aI2
aI-1
aI0
aI1
aI-1
aI0
aI0
aI2
aI1
aI-3
aI0
aI-2
aI0
aI-1
aI0
aI0
aI0
aI1
aI0
aI0
aI-1
aI0
aI0
aI-3
aI0
aI0
aI-2
aI-1
aI-1
aI1
aI0
aI0
aI-4
aa(lp78
g43
aI0
aI-2
aI0
aI-2
aI2
aI-1
aI0
aI1
aI-1
aI-1
aI0
aI2
aI-1
aI-1
aI0
aI-2
aI0
aI-1
aI0
aI1
aI-1
aI1
aI0
aI2
aI-1
aI0
aI-1
aI-1
aI0
aI-1
aI-1
aI-1
aI-1
aI1
aI0
aI0
aI-4
aaasS'linearregressionendswithcutoff_imputedtables'
p79
(dp80
g10
(lp81
(lp82
(lp83
g14
aI1721
aI352
ag15
aI2868
aI8709
ag16
aI3866
ag17
aI7514
aI9607
ag18
ag19
aI7959
aI9847
aI3326
aI707
aI6458
aI104439
aI6005
ag20
ag21
ag22
aI5284
aI5106
aI8392
aI8333
aI7381
aI5994
aI5802
ag23
aI6424
aI2068
aI7509
ag24
aI6248
ag25
aI104334
aa(lp84
g27
aI0
aI0
aI0
aI0
aI0
aI0
aI0
aI0
aI0
aI0
aI0
aI0
aI0
aI0
aI0
aI0
aI0
aI0
aI0
aI0
aI0
aI0
aI0
aI0
aI0
aI0
aI0
aI0
aI0
aI0
aI0
aI0
aI0
aI0
aI0
aI0
aI0
aa(lp85
g29
aI1
aI0
aI0
aI-1
aI-2
aI0
aI-1
aI0
aI0
aI0
aI-2
aI-4
aI-1
aI2
aI0
aI-1
aI0
aI0
aI0
aI-1
aI-1
aI0
aI-1
aI-2
aI0
aI1
aI1
aI1
aI0
aI0
aI2
aI0
aI0
aI0
aI-2
aI0
aI0
aa(lp86
g31
aI1
aI-2
aI0
aI-1
aI-3
aI0
aI-1
aI0
aI0
aI0
aI-2
aI-4
aI-2
aI3
aI-1
aI0
aI0
aI0
aI0
aI-1
aI-1
aI0
aI-1
aI-2
aI0
aI1
aI0
aI0
aI0
aI0
aI2
aI0
aI0
aI0
aI-2
aI0
aI0
aa(lp87
g33
aI1
aI0
aI1
aI-2
aI-2
aI0
aI-1
aI0
aI0
aI0
aI-2
aI-2
aI-1
aI-1
aI2
aI-1
aI0
aI1
aI0
aI-1
aI-1
aI0
aI-1
aI-2
aI0
aI0
aI1
aI1
aI0
aI-1
aI1
aI0
aI0
aI-1
aI-1
aI0
aI0
aa(lp88
g35
aI1
aI-1
aI1
aI-1
aI-3
aI0
aI-1
aI0
aI0
aI0
aI-2
aI-2
aI0
aI-1
aI2
aI-1
aI0
aI1
aI0
aI-1
aI-1
aI0
aI-1
aI-2
aI0
aI0
aI0
aI1
aI0
aI-1
aI2
aI0
aI0
aI-1
aI-1
aI0
aI-1
aa(lp89
g37
aI-1
aI2
aI0
aI-4
aI0
aI-1
aI0
aI1
aI-1
aI0
aI0
aI1
aI-2
aI-2
aI1
aI-2
aI0
aI-1
aI-1
aI2
aI0
aI1
aI0
aI1
aI0
aI0
aI0
aI-1
aI0
aI-2
aI0
aI-1
aI2
aI1
aI0
aI0
aI-2
aa(lp90
g39
aI0
aI2
aI0
aI-3
aI1
aI-1
aI0
aI1
aI-1
aI0
aI-1
aI2
aI0
aI-3
aI1
aI-2
aI0
aI0
aI0
aI2
aI0
aI1
aI0
aI-1
aI0
aI0
aI0
aI-1
aI0
aI-2
aI0
aI0
aI2
aI1
aI0
aI0
aI-2
aa(lp91
g41
aI0
aI0
aI0
aI-2
aI2
aI-1
aI0
aI1
aI-1
aI0
aI0
aI2
aI1
aI-3
aI0
aI-2
aI0
aI-1
aI0
aI0
aI0
aI1
aI0
aI0
aI-1
aI0
aI0
aI-3
aI0
aI0
aI-2
aI-1
aI-1
aI1
aI0
aI0
aI-4
aa(lp92
g43
aI0
aI-2
aI0
aI-2
aI2
aI-1
aI0
aI1
aI-1
aI-1
aI0
aI2
aI-1
aI-1
aI0
aI-2
aI0
aI-1
aI0
aI1
aI-1
aI1
aI0
aI2
aI-1
aI0
aI-1
aI-1
aI0
aI-1
aI-1
aI-1
aI-1
aI1
aI0
aI0
aI-4
aaa(lp93
(lp94
g14
aI1721
aI352
ag15
aI2868
aI8709
ag16
aI3866
ag17
aI7514
aI9607
ag18
ag19
aI7959
aI9847
aI3326
aI707
aI6458
aI104439
aI6005
ag20
ag21
ag22
aI5284
aI5106
aI8392
aI8333
aI7381
aI5994
aI5802
ag23
aI6424
aI2068
aI7509
ag24
aI6248
ag25
aI104334
aa(lp95
g27
aI0
aI0
aI0
aI0
aI0
aI0
aI0
aI0
aI0
aI0
aI0
aI0
aI0
aI0
aI0
aI0
aI0
aI0
aI0
aI0
aI0
aI0
aI0
aI0
aI0
aI0
aI0
aI0
aI0
aI0
aI0
aI0
aI0
aI0
aI0
aI0
aI0
aa(lp96
g29
aI1
aI0
aI0
aI-1
aI-2
aI0
aI-1
aI0
aI0
aI0
aI-2
aI-4
aI-1
aI2
aI0
aI-1
aI0
aI0
aI0
aI-1
aI-1
aI0
aI-1
aI-2
aI0
aI1
aI1
aI1
aI0
aI0
aI2
aI0
aI0
aI0
aI-2
aI0
aI0
aa(lp97
g31
aI1
aI-2
aI0
aI-1
aI-3
aI0
aI-1
aI0
aI0
aI0
aI-2
aI-4
aI-2
aI3
aI-1
aI0
aI0
aI0
aI0
aI-1
aI-1
aI0
aI-1
aI-2
aI0
aI1
aI0
aI0
aI0
aI0
aI2
aI0
aI0
aI0
aI-2
aI0
aI0
aa(lp98
g33
aI1
aI0
aI1
aI-2
aI-2
aI0
aI-1
aI0
aI0
aI0
aI-2
aI-2
aI-1
aI-1
aI2
aI-1
aI0
aI1
aI0
aI-1
aI-1
aI0
aI-1
aI-2
aI0
aI0
aI1
aI1
aI0
aI-1
aI1
aI0
aI0
aI-1
aI-1
aI0
aI0
aa(lp99
g35
aI0
aI-1
aI1
aI-1
aI-3
aI0
aI-1
aI0
aI0
aI0
aI-2
aI-2
aI0
aI-1
aI2
aI-1
aI0
aI1
aI0
aI-1
aI-1
aI0
aI-1
aI-2
aI0
aI0
aI0
aI1
aI0
aI-1
aI2
aI0
aI0
aI-1
aI-1
aI0
aI-1
aa(lp100
g37
aI-1
aI0
aI0
aI-4
aI0
aI-1
aI0
aI1
aI-1
aI0
aI0
aI1
aI-2
aI-2
aI1
aI-2
aI0
aI-1
aI-1
aI2
aI0
aI1
aI0
aI1
aI0
aI0
aI0
aI-1
aI0
aI-2
aI0
aI-1
aI2
aI1
aI0
aI0
aI-2
aa(lp101
g39
aI0
aI2
aI0
aI-3
aI1
aI-1
aI0
aI1
aI-1
aI0
aI-1
aI2
aI0
aI-3
aI1
aI-2
aI0
aI0
aI0
aI2
aI0
aI1
aI0
aI-1
aI0
aI0
aI0
aI-1
aI0
aI-2
aI0
aI-1
aI2
aI1
aI0
aI0
aI-2
aa(lp102
g41
aI0
aI0
aI0
aI-2
aI2
aI-1
aI0
aI1
aI-1
aI0
aI0
aI2
aI1
aI-3
aI0
aI-2
aI0
aI-1
aI0
aI0
aI0
aI1
aI0
aI0
aI-1
aI0
aI0
aI-3
aI0
aI0
aI-2
aI-1
aI-1
aI1
aI0
aI0
aI-4
aa(lp103
g43
aI0
aI-2
aI0
aI-2
aI2
aI-1
aI0
aI1
aI-1
aI-1
aI0
aI2
aI-1
aI-1
aI0
aI-2
aI0
aI-1
aI0
aI1
aI-1
aI1
aI0
aI2
aI-1
aI0
aI-1
aI-1
aI0
aI-1
aI-1
aI-1
aI-1
aI1
aI0
aI0
aI-4
aaassS'Fitchforimputation_imputedtables'
p104
(dp105
g10
(lp106
(lp107
(lp108
g14
aI1721
aI352
ag15
aI2868
aI8709
ag16
aI3866
ag17
aI7514
aI9607
ag18
ag19
aI7959
aI9847
aI3326
aI707
aI6458
aI104439
aI6005
ag20
ag21
ag22
aI5284
aI5106
aI8392
aI8333
aI7381
aI5994
aI5802
ag23
aI6424
aI2068
aI7509
ag24
aI6248
ag25
aI104334
aa(lp109
g27
aI0
aI0
aI0
aI0
aI0
aI0
aI0
aI0
aI0
aI0
aI0
aI0
aI0
aI0
aI0
aI0
aI0
aI0
aI0
aI0
aI0
aI0
aI0
aI0
aI0
aI0
aI0
aI0
aI0
aI0
aI0
aI0
aI0
aI0
aI0
aI0
aI0
aa(lp110
g29
aI1
aI0
aI0
aI-1
aI-2
aI0
aI-1
aI0
aI0
aI0
aI-2
aI-4
aI-1
aI2
aI0
aI-1
aI0
aI0
aI0
aI-1
aI-1
aI0
aI-1
aI-2
aI0
aI1
aI1
aI1
aI0
aI0
aI2
aI0
aI0
aI0
aI-2
aI0
aI0
aa(lp111
g31
aI1
aI-2
aI0
aI-1
aI-3
aI0
aI-1
aI0
aI0
aI0
aI-2
aI-4
aI-2
aI3
aI-1
aI0
aI0
aI0
aI0
aI-1
aI-1
aI0
aI-1
aI-2
aI0
aI1
aI0
aI0
aI0
aI0
aI2
aI0
aI0
aI0
aI-2
aI0
aI0
aa(lp112
g33
aI1
aI0
aI1
aI-2
aI-2
aI0
aI-1
aI0
aI0
aI0
aI-2
aI-2
aI-1
aI-1
aI2
aI-1
aI0
aI1
aI0
aI-1
aI-1
aI0
aI-1
aI-2
aI0
aI0
aI1
aI1
aI0
aI-1
aI1
aI0
aI0
aI-1
aI-1
aI0
aI0
aa(lp113
g35
aI1
aI-1
aI1
aI-1
aI-3
aI0
aI-1
aI0
aI0
aI0
aI-2
aI-2
aI0
aI-1
aI2
aI-1
aI0
aI1
aI0
aI-1
aI-1
aI0
aI-1
aI-2
aI0
aI0
aI0
aI1
aI0
aI-1
aI2
aI0
aI0
aI-1
aI-1
aI0
aI-1
aa(lp114
g37
aI-1
aI2
aI0
aI-4
aI0
aI-1
aI0
aI1
aI-1
aI0
aI0
aI1
aI-2
aI-2
aI1
aI-2
aI0
aI-1
aI-1
aI2
aI0
aI1
aI0
aI1
aI0
aI0
aI0
aI-1
aI0
aI-2
aI0
aI-1
aI2
aI1
aI0
aI0
aI-2
aa(lp115
g39
aI0
aI2
aI0
aI-3
aI1
aI-1
aI0
aI1
aI-1
aI0
aI-1
aI2
aI0
aI-3
aI1
aI-2
aI0
aI0
aI0
aI2
aI0
aI1
aI0
aI-1
aI0
aI0
aI0
aI-1
aI0
aI-2
aI0
aI-1
aI2
aI1
aI0
aI0
aI-2
aa(lp116
g41
aI0
aI0
aI0
aI-2
aI2
aI-1
aI0
aI1
aI-1
aI0
aI0
aI2
aI1
aI-3
aI0
aI-2
aI0
aI-1
aI0
aI0
aI0
aI1
aI0
aI0
aI-1
aI0
aI0
aI-3
aI0
aI0
aI-2
aI-1
aI-1
aI1
aI0
aI0
aI-4
aa(lp117
g43
aI0
aI-2
aI0
aI-2
aI2
aI-1
aI0
aI1
aI-1
aI-1
aI0
aI2
aI-1
aI-1
aI0
aI-2
aI0
aI-1
aI0
aI1
aI-1
aI1
aI0
aI2
aI-1
aI0
aI-1
aI-1
aI0
aI-1
aI-1
aI-1
aI-1
aI1
aI0
aI0
aI-4
aaa(lp118
(lp119
g14
aI1721
aI352
ag15
aI2868
aI8709
ag16
aI3866
ag17
aI7514
aI9607
ag18
ag19
aI7959
aI9847
aI3326
aI707
aI6458
aI104439
aI6005
ag20
ag21
ag22
aI5284
aI5106
aI8392
aI8333
aI7381
aI5994
aI5802
ag23
aI6424
aI2068
aI7509
ag24
aI6248
ag25
aI104334
aa(lp120
g27
aI0
aI0
aI0
aI0
aI0
aI0
aI0
aI0
aI0
aI0
aI0
aI0
aI0
aI0
aI0
aI0
aI0
aI0
aI0
aI0
aI0
aI0
aI0
aI0
aI0
aI0
aI0
aI0
aI0
aI0
aI0
aI0
aI0
aI0
aI0
aI0
aI0
aa(lp121
g29
aI1
aI0
aI0
aI-1
aI-2
aI0
aI-1
aI0
aI0
aI0
aI-2
aI-4
aI-1
aI2
aI0
aI-1
aI0
aI0
aI0
aI-1
aI-1
aI0
aI-1
aI-2
aI0
aI1
aI1
aI1
aI0
aI0
aI2
aI0
aI0
aI0
aI-2
aI0
aI0
aa(lp122
g31
aI1
aI-2
aI0
aI-1
aI-3
aI0
aI-1
aI0
aI0
aI0
aI-2
aI-4
aI-2
aI3
aI-1
aI0
aI0
aI0
aI0
aI-1
aI-1
aI0
aI-1
aI-2
aI0
aI1
aI0
aI0
aI0
aI0
aI2
aI0
aI0
aI0
aI-2
aI0
aI0
aa(lp123
g33
aI1
aI0
aI1
aI-2
aI-2
aI0
aI-1
aI0
aI0
aI0
aI-2
aI-2
aI-1
aI-1
aI2
aI-1
aI0
aI1
aI0
aI-1
aI-1
aI0
aI-1
aI-2
aI0
aI0
aI1
aI1
aI0
aI-1
aI1
aI0
aI0
aI-1
aI-1
aI0
aI0
aa(lp124
g35
aI1
aI-1
aI1
aI-1
aI-3
aI0
aI-1
aI0
aI0
aI0
aI-2
aI-2
aI0
aI-1
aI2
aI-1
aI0
aI1
aI0
aI-1
aI-1
aI0
aI-1
aI-2
aI0
aI0
aI0
aI1
aI0
aI-1
aI2
aI0
aI0
aI-1
aI-1
aI0
aI-1
aa(lp125
g37
aI-1
aI2
aI0
aI-4
aI0
aI-1
aI0
aI1
aI-1
aI0
aI0
aI1
aI-2
aI-2
aI1
aI-2
aI0
aI-1
aI-1
aI2
aI0
aI1
aI0
aI1
aI0
aI0
aI0
aI-1
aI0
aI-2
aI0
aI-1
aI2
aI1
aI0
aI0
aI-2
aa(lp126
g39
aI0
aI2
aI0
aI-3
aI1
aI-1
aI0
aI1
aI-1
aI0
aI-1
aI2
aI0
aI-3
aI1
aI-2
aI0
aI0
aI0
aI2
aI0
aI1
aI0
aI-1
aI0
aI0
aI0
aI-1
aI0
aI-2
aI0
aI-1
aI2
aI1
aI0
aI0
aI-2
aa(lp127
g41
aI0
aI0
aI0
aI-2
aI2
aI-1
aI0
aI1
aI-1
aI0
aI0
aI2
aI1
aI-3
aI0
aI-2
aI0
aI-1
aI0
aI0
aI0
aI1
aI0
aI0
aI-1
aI0
aI0
aI-3
aI0
aI0
aI-2
aI-1
aI-1
aI1
aI0
aI0
aI-4
aa(lp128
g43
aI0
aI-2
aI0
aI-2
aI2
aI-1
aI0
aI1
aI-1
aI-1
aI0
aI2
aI-1
aI-1
aI0
aI-2
aI0
aI-1
aI0
aI1
aI-1
aI1
aI0
aI2
aI-1
aI0
aI-1
aI-1
aI0
aI-1
aI-1
aI-1
aI-1
aI1
aI0
aI0
aI-4
aaasssS'tableswith 1 missingentries'
p129
(dp130
S'onennimputationuniform_imputedtables'
p131
(dp132
g10
(lp133
(lp134
(lp135
g14
aI1721
aI352
ag15
aI2868
aI8709
ag16
aI3866
ag17
aI7514
aI9607
ag18
ag19
aI7959
aI9847
aI3326
aI707
aI6458
aI104439
aI6005
ag20
ag21
ag22
aI5284
aI5106
aI8392
aI8333
aI7381
aI5994
aI5802
ag23
aI6424
aI2068
aI7509
ag24
aI6248
ag25
aI104334
aa(lp136
g27
aI0
aI0
aI0
aI0
aI0
aI0
aI0
aI0
aI0
aI0
aI0
aI0
aI0
aI0
aI0
aI0
aI0
aI0
aI0
aI0
aI0
aI0
aI0
aI0
aI0
aI0
aI0
aI0
aI0
aI0
aI0
aI0
aI0
aI0
aI0
aI0
aI0
aa(lp137
g29
aI1
aI0
aI0
aI-1
aI-2
aI0
aI-1
aI0
aI0
aI0
aI-2
aI-4
aI-1
aI2
aI0
aI-1
aI0
aI0
aI0
aI-1
aI-1
aI0
aI-1
aI-2
aI0
aI1
aI1
aI1
aI0
aI0
aI2
aI0
aI0
aI0
aI-2
aI0
aI0
aa(lp138
g31
aI1
aI-2
aI0
aI-1
aI-3
aI0
aI-1
aI0
aI0
aI0
aI-2
aI-4
aI-2
aI3
aI-1
aI0
aI0
aI0
aI0
aI-1
aI-1
aI0
aI-1
aI-2
aI0
aI1
aI0
aI0
aI0
aI0
aI2
aI0
aI0
aI0
aI-2
aI0
aI0
aa(lp139
g33
aI1
aI0
aI1
aI-2
aI-2
aI0
aI-1
aI0
aI0
aI0
aI-2
aI-2
aI-1
aI-1
aI2
aI-1
aI0
aI1
aI0
aI-1
aI-1
aI0
aI-1
aI-2
aI0
aI0
aI1
aI1
aI0
aI-1
aI1
aI0
aI0
aI-1
aI-1
aI0
aI0
aa(lp140
g35
aI1
aI-1
aI1
aI-1
aI-3
aI0
aI-1
aI0
aI0
aI0
aI-2
aI-2
aI0
aI-1
aI2
aI-1
aI0
aI1
aI0
aI-1
aI-1
aI0
aI-1
aI-2
aI0
aI0
aI0
aI1
aI0
aI-1
aI2
aI0
aI0
aI-1
aI-1
aI0
aI-1
aa(lp141
g37
aI-1
aI2
aI0
aI-4
aI0
aI-1
aI0
aI1
aI-1
aI0
aI0
aI1
aI-2
aI-2
aI1
aI-2
aI0
aI-1
aI-1
aI2
aI0
aI1
aI0
aI1
aI0
aI0
aI0
aI-1
aI0
aI-2
aI0
aI-1
aI2
aI1
aI0
aI0
aI-2
aa(lp142
g39
aI0
aI2
aI0
aI-3
aI1
aI-1
aI0
aI1
aI-1
aI0
aI-1
aI2
aI0
aI-3
aI1
aI-2
aI0
aI0
aI0
aI2
aI0
aI1
aI0
aI-1
aI0
aI0
aI0
aI-1
aI0
aI-2
aI0
aI-1
aI2
aI1
aI0
aI0
aI-2
aa(lp143
g41
aI0
aI0
aI0
aI-2
aI2
aI-1
aI0
aI1
aI-1
aI0
aI0
aI2
aI1
aI-3
aI0
aI-2
aI0
aI-1
aI0
aI0
aI0
aI1
aI0
aI0
aI-1
aI0
aI0
aI-3
aI0
aI0
aI-2
aI-1
aI-1
aI1
aI0
aI0
aI-4
aa(lp144
g43
aI0
aI-2
aI0
aI-2
aI2
aI-1
aI0
aI1
aI-1
aI-1
aI0
aI2
aI-1
aI-1
aI0
aI-2
aI0
aI-1
aI0
aI1
aI-1
aI1
aI0
aI2
aI-1
aI0
aI-1
aI-1
aI0
aI-1
aI-1
aI-1
aI-1
aI1
aI0
aI0
aI-4
aaa(lp145
(lp146
g14
aI1721
aI352
ag15
aI2868
aI8709
ag16
aI3866
ag17
aI7514
aI9607
ag18
ag19
aI7959
aI9847
aI3326
aI707
aI6458
aI104439
aI6005
ag20
ag21
ag22
aI5284
aI5106
aI8392
aI8333
aI7381
aI5994
aI5802
ag23
aI6424
aI2068
aI7509
ag24
aI6248
ag25
aI104334
aa(lp147
g27
aI0
aI0
aI0
aI0
aI0
aI0
aI0
aI0
aI0
aI0
aI0
aI0
aI0
aI0
aI0
aI0
aI0
aI0
aI0
aI0
aI0
aI0
aI0
aI0
aI0
aI0
aI0
aI0
aI0
aI0
aI0
aI0
aI0
aI0
aI0
aI0
aI0
aa(lp148
g29
aI1
aI0
aI0
aI-1
aI-2
aI0
aI-1
aI0
aI0
aI0
aI-2
aI-4
aI-1
aI2
aI0
aI-1
aI0
aI0
aI0
aI-1
aI-1
aI0
aI-1
aI-2
aI0
aI1
aI1
aI1
aI0
aI0
aI2
aI0
aI0
aI0
aI-2
aI0
aI0
aa(lp149
g31
aI1
aI-2
aI0
aI-1
aI-3
aI0
aI-1
aI0
aI0
aI0
aI-2
aI-4
aI-2
aI3
aI-1
aI0
aI0
aI0
aI0
aI-1
aI-1
aI0
aI-1
aI-2
aI0
aI1
aI0
aI0
aI0
aI0
aI2
aI0
aI0
aI0
aI-2
aI0
aI0
aa(lp150
g33
aI1
aI0
aI1
aI-2
aI-2
aI0
aI-1
aI0
aI0
aI0
aI-2
aI-2
aI-1
aI-1
aI2
aI-1
aI0
aI1
aI0
aI-1
aI-1
aI0
aI-1
aI-2
aI0
aI0
aI1
aI1
aI0
aI-1
aI1
aI0
aI0
aI-1
aI-1
aI0
aI0
aa(lp151
g35
aI1
aI-1
aI1
aI-1
aI-3
aI0
aI-1
aI0
aI0
aI0
aI-2
aI-2
aI0
aI-1
aI2
aI-1
aI0
aI1
aI0
aI-1
aI-1
aI0
aI-1
aI-2
aI0
aI0
aI0
aI1
aI0
aI-1
aI2
aI0
aI0
aI-1
aI-1
aI0
aI-1
aa(lp152
g37
aI-1
aI2
aI0
aI-4
aI0
aI-1
aI0
aI1
aI-1
aI0
aI0
aI1
aI-2
aI-2
aI1
aI-2
aI0
aI-1
aI-1
aI2
aI0
aI1
aI0
aI1
aI0
aI0
aI0
aI-1
aI0
aI-2
aI0
aI-1
aI2
aI1
aI0
aI0
aI-2
aa(lp153
g39
aI0
aI2
aI0
aI-3
aI1
aI-1
aI0
aI1
aI-1
aI0
aI-1
aI2
aI0
aI-3
aI1
aI-2
aI0
aI0
aI0
aI2
aI0
aI1
aI0
aI-1
aI0
aI0
aI0
aI-1
aI0
aI-2
aI0
aI-1
aI2
aI1
aI0
aI0
aI-2
aa(lp154
g41
aI0
aI0
aI0
aI-2
aI2
aI-1
aI0
aI1
aI-1
aI0
aI0
aI2
aI1
aI-3
aI0
aI-2
aI0
aI-1
aI0
aI0
aI0
aI1
aI0
aI0
aI-1
aI0
aI0
aI-3
aI0
aI0
aI-2
aI-1
aI-1
aI1
aI0
aI0
aI-4
aa(lp155
g43
aI0
aI-2
aI0
aI-2
aI2
aI-1
aI0
aI1
aI-1
aI-1
aI0
aI2
aI-1
aI-1
aI0
aI-2
aI0
aI-1
aI0
aI1
aI-1
aI1
aI0
aI2
aI-1
aI0
aI-1
aI-1
aI0
aI-1
aI-1
aI-1
aI-1
aI1
aI0
aI0
aI-4
aaassg10
(lp156
(lp157
(lp158
g14
aI1721
aI352
ag15
aI2868
aI8709
ag16
aI3866
ag17
aI7514
aI9607
ag18
ag19
aI7959
aI9847
aI3326
aI707
aI6458
aI104439
aI6005
ag20
ag21
ag22
aI5284
aI5106
aI8392
aI8333
aI7381
aI5994
aI5802
ag23
aI6424
aI2068
aI7509
ag24
aI6248
ag25
aI104334
aa(lp159
g27
aI0
aI0
aI0
aI0
aI0
aI0
aI0
aI0
aI0
aI0
aI0
aI0
aI0
aI0
aI0
aI0
aI0
aI0
aI0
aI0
aI0
aI0
aI0
aI0
aI0
aI0
aI0
aI0
aI0
aI0
aI0
aI0
aI0
aI0
aI0
aI0
aI0
aa(lp160
g29
aI1
aI0
aI0
aI-1
aI-2
aI0
aI-1
aI0
aI0
aI0
aI-2
aI-4
aI-1
aI2
aI0
aI-1
aI0
aI0
aI0
aI-1
aI-1
aI0
aI-1
aI-2
aI0
aI1
aI1
aI1
aI0
aI0
aI2
aI0
aI0
aI0
aI-2
aI0
aI0
aa(lp161
g31
aI1
aI-2
aI0
aI-1
aI-3
aI0
aI-1
aI0
aI0
aI0
aI-2
aI-4
aI-2
aI3
aI-1
aI0
aI0
aI0
aI0
aI-1
aI-1
aI0
aI-1
aI-2
aI0
aI1
aI0
aI0
aI0
aI0
aI2
aI0
aI0
aI0
aI-2
aI0
aI0
aa(lp162
g33
aI1
aI0
aI1
aI-2
aI-2
aI0
aI-1
aI0
aI0
aI0
aI-2
aI-2
aI-1
aI-1
aI2
aI-1
aI0
aI1
aI0
aI-1
aI-1
aI0
aI-1
aI-2
aI0
aI0
aI1
aI1
aI0
aI-1
aI1
aI0
aI0
aI-1
aI-1
aI0
aI0
aa(lp163
g35
aI1
aI-1
aI1
aI-1
aI-3
aI0
aI-1
aI0
aI0
aI0
aI-2
aI-2
aI0
aI-1
aI2
aI-1
aI0
aI1
aI0
aI-1
aI-1
aI0
aI-1
aI-2
aI0
aI0
aI0
aI1
aI0
aI-1
aI2
aI0
aI0
aI-1
aI-1
aI0
aI-1
aa(lp164
g37
aI-1
aI2
aI0
aI-4
aI0
aI-1
aI0
aI1
aI-1
aI0
aI0
aI1
aI-2
aI-2
aI1
aI-2
aI0
aI-1
aI-1
aI2
aI0
aI1
aI0
aI1
aI0
aI0
aI0
aI-1
aI0
aI-2
aI0
aI-1
aI2
aI1
aI0
aI0
aI-2
aa(lp165
g39
aI0
aI2
aI0
aI-3
aI1
aI-1
aI0
aI1
aI-1
aI0
aI-1
aI2
aI0
aI-3
aI1
aI-2
aI0
aI0
aI0
aI2
aI0
aI1
aI0
aI-1
aI0
aI0
aI0
aI-1
aI0
aI-2
aI0
aI-1
aI2
aI1
aI0
aI0
aI-2
aa(lp166
g41
aI0
aI0
aI0
aI-2
aI2
ag65
aI0
aI1
aI-1
aI0
aI0
aI2
aI1
aI-3
aI0
aI-2
aI0
aI-1
aI0
aI0
aI0
aI1
aI0
aI0
aI-1
aI0
aI0
aI-3
aI0
aI0
aI-2
aI-1
aI-1
aI1
aI0
aI0
aI-4
aa(lp167
g43
aI0
aI-2
aI0
aI-2
aI2
aI-1
aI0
aI1
aI-1
aI-1
aI0
aI2
aI-1
aI-1
aI0
aI-2
aI0
aI-1
aI0
aI1
aI-1
aI1
aI0
aI2
aI-1
aI0
aI-1
aI-1
aI0
aI-1
aI-1
aI-1
aI-1
aI1
aI0
aI0
aI-4
aaa(lp168
(lp169
g14
aI1721
aI352
ag15
aI2868
aI8709
ag16
aI3866
ag17
aI7514
aI9607
ag18
ag19
aI7959
aI9847
aI3326
aI707
aI6458
aI104439
aI6005
ag20
ag21
ag22
aI5284
aI5106
aI8392
aI8333
aI7381
aI5994
aI5802
ag23
aI6424
aI2068
aI7509
ag24
aI6248
ag25
aI104334
aa(lp170
g27
aI0
aI0
aI0
aI0
aI0
aI0
aI0
aI0
aI0
aI0
aI0
aI0
aI0
aI0
aI0
aI0
aI0
aI0
aI0
aI0
aI0
aI0
aI0
aI0
aI0
aI0
aI0
aI0
aI0
aI0
aI0
aI0
aI0
aI0
aI0
aI0
aI0
aa(lp171
g29
aI1
aI0
aI0
aI-1
aI-2
aI0
aI-1
aI0
aI0
aI0
aI-2
aI-4
aI-1
aI2
aI0
aI-1
aI0
aI0
aI0
aI-1
aI-1
aI0
aI-1
aI-2
aI0
aI1
aI1
aI1
aI0
aI0
aI2
aI0
aI0
aI0
aI-2
aI0
aI0
aa(lp172
g31
aI1
aI-2
aI0
aI-1
aI-3
aI0
aI-1
aI0
aI0
aI0
aI-2
aI-4
aI-2
aI3
aI-1
aI0
aI0
aI0
aI0
aI-1
aI-1
aI0
aI-1
aI-2
aI0
aI1
aI0
aI0
aI0
aI0
aI2
aI0
aI0
aI0
aI-2
aI0
aI0
aa(lp173
g33
aI1
aI0
aI1
aI-2
aI-2
aI0
ag65
aI0
aI0
aI0
aI-2
aI-2
aI-1
aI-1
aI2
aI-1
aI0
aI1
aI0
aI-1
aI-1
aI0
aI-1
aI-2
aI0
aI0
aI1
aI1
aI0
aI-1
aI1
aI0
aI0
aI-1
aI-1
aI0
aI0
aa(lp174
g35
aI1
aI-1
aI1
aI-1
aI-3
aI0
aI-1
aI0
aI0
aI0
aI-2
aI-2
aI0
aI-1
aI2
aI-1
aI0
aI1
aI0
aI-1
aI-1
aI0
aI-1
aI-2
aI0
aI0
aI0
aI1
aI0
aI-1
aI2
aI0
aI0
aI-1
aI-1
aI0
aI-1
aa(lp175
g37
aI-1
aI2
aI0
aI-4
aI0
aI-1
aI0
aI1
aI-1
aI0
aI0
aI1
aI-2
aI-2
aI1
aI-2
aI0
aI-1
aI-1
aI2
aI0
aI1
aI0
aI1
aI0
aI0
aI0
aI-1
aI0
aI-2
aI0
aI-1
aI2
aI1
aI0
aI0
aI-2
aa(lp176
g39
aI0
aI2
aI0
aI-3
aI1
aI-1
aI0
aI1
aI-1
aI0
aI-1
aI2
aI0
aI-3
aI1
aI-2
aI0
aI0
aI0
aI2
aI0
aI1
aI0
aI-1
aI0
aI0
aI0
aI-1
aI0
aI-2
aI0
aI-1
aI2
aI1
aI0
aI0
aI-2
aa(lp177
g41
aI0
aI0
aI0
aI-2
aI2
aI-1
aI0
aI1
aI-1
aI0
aI0
aI2
aI1
aI-3
aI0
aI-2
aI0
aI-1
aI0
aI0
aI0
aI1
aI0
aI0
aI-1
aI0
aI0
aI-3
aI0
aI0
aI-2
aI-1
aI-1
aI1
aI0
aI0
aI-4
aa(lp178
g43
aI0
aI-2
aI0
aI-2
aI2
aI-1
aI0
aI1
aI-1
aI-1
aI0
aI2
aI-1
aI-1
aI0
aI-2
aI0
aI-1
aI0
aI1
aI-1
aI1
aI0
aI2
aI-1
aI0
aI-1
aI-1
aI0
aI-1
aI-1
aI-1
aI-1
aI1
aI0
aI0
aI-4
aaasS'linearregressionendswithcutoff_imputedtables'
p179
(dp180
g10
(lp181
(lp182
(lp183
g14
aI1721
aI352
ag15
aI2868
aI8709
ag16
aI3866
ag17
aI7514
aI9607
ag18
ag19
aI7959
aI9847
aI3326
aI707
aI6458
aI104439
aI6005
ag20
ag21
ag22
aI5284
aI5106
aI8392
aI8333
aI7381
aI5994
aI5802
ag23
aI6424
aI2068
aI7509
ag24
aI6248
ag25
aI104334
aa(lp184
g27
aI0
aI0
aI0
aI0
aI0
aI0
aI0
aI0
aI0
aI0
aI0
aI0
aI0
aI0
aI0
aI0
aI0
aI0
aI0
aI0
aI0
aI0
aI0
aI0
aI0
aI0
aI0
aI0
aI0
aI0
aI0
aI0
aI0
aI0
aI0
aI0
aI0
aa(lp185
g29
aI1
aI0
aI0
aI-1
aI-2
aI0
aI-1
aI0
aI0
aI0
aI-2
aI-4
aI-1
aI2
aI0
aI-1
aI0
aI0
aI0
aI-1
aI-1
aI0
aI-1
aI-2
aI0
aI1
aI1
aI1
aI0
aI0
aI2
aI0
aI0
aI0
aI-2
aI0
aI0
aa(lp186
g31
aI1
aI-2
aI0
aI-1
aI-3
aI0
aI-1
aI0
aI0
aI0
aI-2
aI-4
aI-2
aI3
aI-1
aI0
aI0
aI0
aI0
aI-1
aI-1
aI0
aI-1
aI-2
aI0
aI1
aI0
aI0
aI0
aI0
aI2
aI0
aI0
aI0
aI-2
aI0
aI0
aa(lp187
g33
aI1
aI0
aI1
aI-2
aI-2
aI0
aI-1
aI0
aI0
aI0
aI-2
aI-2
aI-1
aI-1
aI2
aI-1
aI0
aI1
aI0
aI-1
aI-1
aI0
aI-1
aI-2
aI0
aI0
aI1
aI1
aI0
aI-1
aI1
aI0
aI0
aI-1
aI-1
aI0
aI0
aa(lp188
g35
aI1
aI-1
aI1
aI-1
aI-3
aI0
aI-1
aI0
aI0
aI0
aI-2
aI-2
aI0
aI-1
aI2
aI-1
aI0
aI1
aI0
aI-1
aI-1
aI0
aI-1
aI-2
aI0
aI0
aI0
aI1
aI0
aI-1
aI2
aI0
aI0
aI-1
aI-1
aI0
aI-1
aa(lp189
g37
aI-1
aI2
aI0
aI-4
aI0
aI-1
aI0
aI1
aI-1
aI0
aI0
aI1
aI-2
aI-2
aI1
aI-2
aI0
aI-1
aI-1
aI2
aI0
aI1
aI0
aI1
aI0
aI0
aI0
aI-1
aI0
aI-2
aI0
aI-1
aI2
aI1
aI0
aI0
aI-2
aa(lp190
g39
aI0
aI2
aI0
aI-3
aI1
aI-1
aI0
aI1
aI-1
aI0
aI-1
aI2
aI0
aI-3
aI1
aI-2
aI0
aI0
aI0
aI2
aI0
aI1
aI0
aI-1
aI0
aI0
aI0
aI-1
aI0
aI-2
aI0
aI-1
aI2
aI1
aI0
aI0
aI-2
aa(lp191
g41
aI0
aI0
aI0
aI-2
aI2
aI0
aI0
aI1
aI-1
aI0
aI0
aI2
aI1
aI-3
aI0
aI-2
aI0
aI-1
aI0
aI0
aI0
aI1
aI0
aI0
aI-1
aI0
aI0
aI-3
aI0
aI0
aI-2
aI-1
aI-1
aI1
aI0
aI0
aI-4
aa(lp192
g43
aI0
aI-2
aI0
aI-2
aI2
aI-1
aI0
aI1
aI-1
aI-1
aI0
aI2
aI-1
aI-1
aI0
aI-2
aI0
aI-1
aI0
aI1
aI-1
aI1
aI0
aI2
aI-1
aI0
aI-1
aI-1
aI0
aI-1
aI-1
aI-1
aI-1
aI1
aI0
aI0
aI-4
aaa(lp193
(lp194
g14
aI1721
aI352
ag15
aI2868
aI8709
ag16
aI3866
ag17
aI7514
aI9607
ag18
ag19
aI7959
aI9847
aI3326
aI707
aI6458
aI104439
aI6005
ag20
ag21
ag22
aI5284
aI5106
aI8392
aI8333
aI7381
aI5994
aI5802
ag23
aI6424
aI2068
aI7509
ag24
aI6248
ag25
aI104334
aa(lp195
g27
aI0
aI0
aI0
aI0
aI0
aI0
aI0
aI0
aI0
aI0
aI0
aI0
aI0
aI0
aI0
aI0
aI0
aI0
aI0
aI0
aI0
aI0
aI0
aI0
aI0
aI0
aI0
aI0
aI0
aI0
aI0
aI0
aI0
aI0
aI0
aI0
aI0
aa(lp196
g29
aI1
aI0
aI0
aI-1
aI-2
aI0
aI-1
aI0
aI0
aI0
aI-2
aI-4
aI-1
aI2
aI0
aI-1
aI0
aI0
aI0
aI-1
aI-1
aI0
aI-1
aI-2
aI0
aI1
aI1
aI1
aI0
aI0
aI2
aI0
aI0
aI0
aI-2
aI0
aI0
aa(lp197
g31
aI1
aI-2
aI0
aI-1
aI-3
aI0
aI-1
aI0
aI0
aI0
aI-2
aI-4
aI-2
aI3
aI-1
aI0
aI0
aI0
aI0
aI-1
aI-1
aI0
aI-1
aI-2
aI0
aI1
aI0
aI0
aI0
aI0
aI2
aI0
aI0
aI0
aI-2
aI0
aI0
aa(lp198
g33
aI1
aI0
aI1
aI-2
aI-2
aI0
aI0
aI0
aI0
aI0
aI-2
aI-2
aI-1
aI-1
aI2
aI-1
aI0
aI1
aI0
aI-1
aI-1
aI0
aI-1
aI-2
aI0
aI0
aI1
aI1
aI0
aI-1
aI1
aI0
aI0
aI-1
aI-1
aI0
aI0
aa(lp199
g35
aI1
aI-1
aI1
aI-1
aI-3
aI0
aI-1
aI0
aI0
aI0
aI-2
aI-2
aI0
aI-1
aI2
aI-1
aI0
aI1
aI0
aI-1
aI-1
aI0
aI-1
aI-2
aI0
aI0
aI0
aI1
aI0
aI-1
aI2
aI0
aI0
aI-1
aI-1
aI0
aI-1
aa(lp200
g37
aI-1
aI2
aI0
aI-4
aI0
aI-1
aI0
aI1
aI-1
aI0
aI0
aI1
aI-2
aI-2
aI1
aI-2
aI0
aI-1
aI-1
aI2
aI0
aI1
aI0
aI1
aI0
aI0
aI0
aI-1
aI0
aI-2
aI0
aI-1
aI2
aI1
aI0
aI0
aI-2
aa(lp201
g39
aI0
aI2
aI0
aI-3
aI1
aI-1
aI0
aI1
aI-1
aI0
aI-1
aI2
aI0
aI-3
aI1
aI-2
aI0
aI0
aI0
aI2
aI0
aI1
aI0
aI-1
aI0
aI0
aI0
aI-1
aI0
aI-2
aI0
aI-1
aI2
aI1
aI0
aI0
aI-2
aa(lp202
g41
aI0
aI0
aI0
aI-2
aI2
aI-1
aI0
aI1
aI-1
aI0
aI0
aI2
aI1
aI-3
aI0
aI-2
aI0
aI-1
aI0
aI0
aI0
aI1
aI0
aI0
aI-1
aI0
aI0
aI-3
aI0
aI0
aI-2
aI-1
aI-1
aI1
aI0
aI0
aI-4
aa(lp203
g43
aI0
aI-2
aI0
aI-2
aI2
aI-1
aI0
aI1
aI-1
aI-1
aI0
aI2
aI-1
aI-1
aI0
aI-2
aI0
aI-1
aI0
aI1
aI-1
aI1
aI0
aI2
aI-1
aI0
aI-1
aI-1
aI0
aI-1
aI-1
aI-1
aI-1
aI1
aI0
aI0
aI-4
aaassS'Fitchforimputation_imputedtables'
p204
(dp205
g10
(lp206
(lp207
(lp208
g14
aI1721
aI352
ag15
aI2868
aI8709
ag16
aI3866
ag17
aI7514
aI9607
ag18
ag19
aI7959
aI9847
aI3326
aI707
aI6458
aI104439
aI6005
ag20
ag21
ag22
aI5284
aI5106
aI8392
aI8333
aI7381
aI5994
aI5802
ag23
aI6424
aI2068
aI7509
ag24
aI6248
ag25
aI104334
aa(lp209
g27
aI0
aI0
aI0
aI0
aI0
aI0
aI0
aI0
aI0
aI0
aI0
aI0
aI0
aI0
aI0
aI0
aI0
aI0
aI0
aI0
aI0
aI0
aI0
aI0
aI0
aI0
aI0
aI0
aI0
aI0
aI0
aI0
aI0
aI0
aI0
aI0
aI0
aa(lp210
g29
aI1
aI0
aI0
aI-1
aI-2
aI0
aI-1
aI0
aI0
aI0
aI-2
aI-4
aI-1
aI2
aI0
aI-1
aI0
aI0
aI0
aI-1
aI-1
aI0
aI-1
aI-2
aI0
aI1
aI1
aI1
aI0
aI0
aI2
aI0
aI0
aI0
aI-2
aI0
aI0
aa(lp211
g31
aI1
aI-2
aI0
aI-1
aI-3
aI0
aI-1
aI0
aI0
aI0
aI-2
aI-4
aI-2
aI3
aI-1
aI0
aI0
aI0
aI0
aI-1
aI-1
aI0
aI-1
aI-2
aI0
aI1
aI0
aI0
aI0
aI0
aI2
aI0
aI0
aI0
aI-2
aI0
aI0
aa(lp212
g33
aI1
aI0
aI1
aI-2
aI-2
aI0
aI-1
aI0
aI0
aI0
aI-2
aI-2
aI-1
aI-1
aI2
aI-1
aI0
aI1
aI0
aI-1
aI-1
aI0
aI-1
aI-2
aI0
aI0
aI1
aI1
aI0
aI-1
aI1
aI0
aI0
aI-1
aI-1
aI0
aI0
aa(lp213
g35
aI1
aI-1
aI1
aI-1
aI-3
aI0
aI-1
aI0
aI0
aI0
aI-2
aI-2
aI0
aI-1
aI2
aI-1
aI0
aI1
aI0
aI-1
aI-1
aI0
aI-1
aI-2
aI0
aI0
aI0
aI1
aI0
aI-1
aI2
aI0
aI0
aI-1
aI-1
aI0
aI-1
aa(lp214
g37
aI-1
aI2
aI0
aI-4
aI0
aI-1
aI0
aI1
aI-1
aI0
aI0
aI1
aI-2
aI-2
aI1
aI-2
aI0
aI-1
aI-1
aI2
aI0
aI1
aI0
aI1
aI0
aI0
aI0
aI-1
aI0
aI-2
aI0
aI-1
aI2
aI1
aI0
aI0
aI-2
aa(lp215
g39
aI0
aI2
aI0
aI-3
aI1
aI-1
aI0
aI1
aI-1
aI0
aI-1
aI2
aI0
aI-3
aI1
aI-2
aI0
aI0
aI0
aI2
aI0
aI1
aI0
aI-1
aI0
aI0
aI0
aI-1
aI0
aI-2
aI0
aI-1
aI2
aI1
aI0
aI0
aI-2
aa(lp216
g41
aI0
aI0
aI0
aI-2
aI2
aI-1
aI0
aI1
aI-1
aI0
aI0
aI2
aI1
aI-3
aI0
aI-2
aI0
aI-1
aI0
aI0
aI0
aI1
aI0
aI0
aI-1
aI0
aI0
aI-3
aI0
aI0
aI-2
aI-1
aI-1
aI1
aI0
aI0
aI-4
aa(lp217
g43
aI0
aI-2
aI0
aI-2
aI2
aI-1
aI0
aI1
aI-1
aI-1
aI0
aI2
aI-1
aI-1
aI0
aI-2
aI0
aI-1
aI0
aI1
aI-1
aI1
aI0
aI2
aI-1
aI0
aI-1
aI-1
aI0
aI-1
aI-1
aI-1
aI-1
aI1
aI0
aI0
aI-4
aaa(lp218
(lp219
g14
aI1721
aI352
ag15
aI2868
aI8709
ag16
aI3866
ag17
aI7514
aI9607
ag18
ag19
aI7959
aI9847
aI3326
aI707
aI6458
aI104439
aI6005
ag20
ag21
ag22
aI5284
aI5106
aI8392
aI8333
aI7381
aI5994
aI5802
ag23
aI6424
aI2068
aI7509
ag24
aI6248
ag25
aI104334
aa(lp220
g27
aI0
aI0
aI0
aI0
aI0
aI0
aI0
aI0
aI0
aI0
aI0
aI0
aI0
aI0
aI0
aI0
aI0
aI0
aI0
aI0
aI0
aI0
aI0
aI0
aI0
aI0
aI0
aI0
aI0
aI0
aI0
aI0
aI0
aI0
aI0
aI0
aI0
aa(lp221
g29
aI1
aI0
aI0
aI-1
aI-2
aI0
aI-1
aI0
aI0
aI0
aI-2
aI-4
aI-1
aI2
aI0
aI-1
aI0
aI0
aI0
aI-1
aI-1
aI0
aI-1
aI-2
aI0
aI1
aI1
aI1
aI0
aI0
aI2
aI0
aI0
aI0
aI-2
aI0
aI0
aa(lp222
g31
aI1
aI-2
aI0
aI-1
aI-3
aI0
aI-1
aI0
aI0
aI0
aI-2
aI-4
aI-2
aI3
aI-1
aI0
aI0
aI0
aI0
aI-1
aI-1
aI0
aI-1
aI-2
aI0
aI1
aI0
aI0
aI0
aI0
aI2
aI0
aI0
aI0
aI-2
aI0
aI0
aa(lp223
g33
aI1
aI0
aI1
aI-2
aI-2
aI0
aI-1
aI0
aI0
aI0
aI-2
aI-2
aI-1
aI-1
aI2
aI-1
aI0
aI1
aI0
aI-1
aI-1
aI0
aI-1
aI-2
aI0
aI0
aI1
aI1
aI0
aI-1
aI1
aI0
aI0
aI-1
aI-1
aI0
aI0
aa(lp224
g35
aI1
aI-1
aI1
aI-1
aI-3
aI0
aI-1
aI0
aI0
aI0
aI-2
aI-2
aI0
aI-1
aI2
aI-1
aI0
aI1
aI0
aI-1
aI-1
aI0
aI-1
aI-2
aI0
aI0
aI0
aI1
aI0
aI-1
aI2
aI0
aI0
aI-1
aI-1
aI0
aI-1
aa(lp225
g37
aI-1
aI2
aI0
aI-4
aI0
aI-1
aI0
aI1
aI-1
aI0
aI0
aI1
aI-2
aI-2
aI1
aI-2
aI0
aI-1
aI-1
aI2
aI0
aI1
aI0
aI1
aI0
aI0
aI0
aI-1
aI0
aI-2
aI0
aI-1
aI2
aI1
aI0
aI0
aI-2
aa(lp226
g39
aI0
aI2
aI0
aI-3
aI1
aI-1
aI0
aI1
aI-1
aI0
aI-1
aI2
aI0
aI-3
aI1
aI-2
aI0
aI0
aI0
aI2
aI0
aI1
aI0
aI-1
aI0
aI0
aI0
aI-1
aI0
aI-2
aI0
aI-1
aI2
aI1
aI0
aI0
aI-2
aa(lp227
g41
aI0
aI0
aI0
aI-2
aI2
aI-1
aI0
aI1
aI-1
aI0
aI0
aI2
aI1
aI-3
aI0
aI-2
aI0
aI-1
aI0
aI0
aI0
aI1
aI0
aI0
aI-1
aI0
aI0
aI-3
aI0
aI0
aI-2
aI-1
aI-1
aI1
aI0
aI0
aI-4
aa(lp228
g43
aI0
aI-2
aI0
aI-2
aI2
aI-1
aI0
aI1
aI-1
aI-1
aI0
aI2
aI-1
aI-1
aI0
aI-2
aI0
aI-1
aI0
aI1
aI-1
aI1
aI0
aI2
aI-1
aI0
aI-1
aI-1
aI0
aI-1
aI-1
aI-1
aI-1
aI1
aI0
aI0
aI-4
aaassssS'missingentriestablesdata_madeby_rauvfm'
p229
(dp230
S'tableswith 2 missingentries'
p231
(dp232
S'onennimputationuniform_imputedtables'
p233
(dp234
g10
(lp235
(lp236
(lp237
g14
aI1721
aI352
ag15
aI2868
aI8709
ag16
aI3866
ag17
aI7514
aI9607
ag18
ag19
aI7959
aI9847
aI3326
aI707
aI6458
aI104439
aI6005
ag20
ag21
ag22
aI5284
aI5106
aI8392
aI8333
aI7381
aI5994
aI5802
ag23
aI6424
aI2068
aI7509
ag24
aI6248
ag25
aI104334
aa(lp238
g27
aI0
aI0
aI0
aI0
aI0
aI0
aI0
aI0
aI0
aI0
aI0
aI0
aI0
aI0
aI0
aI0
aI0
aI0
aI0
aI0
aI0
aI0
aI0
aI0
aI0
aI0
aI0
aI0
aI0
aI0
aI0
aI0
aI0
aI0
aI0
aI0
aI0
aa(lp239
g29
aI1
aI0
aI0
aI-1
aI-2
aI0
aI-1
aI0
aI0
aI0
aI-2
aI-4
aI-1
aI2
aI0
aI-1
aI0
aI0
aI0
aI-1
aI-1
aI0
aI-1
aI-2
aI0
aI1
aI1
aI1
aI0
aI0
aI2
aI0
aI0
aI0
aI-2
aI0
aI0
aa(lp240
g31
aI1
aI-2
aI0
aI-1
aI-3
aI0
aI-1
aI0
aI0
aI0
aI-2
aI-4
aI-2
aI3
aI-1
aI0
aI0
aI0
aI0
aI-1
aI-1
aI0
aI-1
aI-2
aI0
aI1
aI0
aI0
aI0
aI0
aI2
aI0
aI0
aI0
aI-2
aI0
aI0
aa(lp241
g33
aI1
aI0
aI1
aI-2
aI-2
aI0
aI-1
aI0
aI0
aI0
aI-2
aI-2
aI-1
aI-1
aI2
aI-1
aI0
aI1
aI0
aI-1
aI-1
aI0
aI-1
aI-2
aI0
aI0
aI1
aI1
aI0
aI-1
aI1
aI0
aI0
aI-1
aI-1
aI0
aI0
aa(lp242
g35
aI1
aI-1
aI1
aI-1
aI-3
aI0
aI-1
aI0
aI0
aI0
aI-2
aI-2
aI0
aI-1
aI2
aI-1
aI0
aI1
aI0
aI-1
aI-1
aI0
aI-1
aI-2
aI0
aI0
aI0
aI1
aI0
aI-1
aI2
aI0
aI0
aI-1
aI-1
aI0
aI-1
aa(lp243
g37
aI-1
aI2
aI0
aI-4
aI0
aI-1
aI0
aI1
aI-1
aI0
aI0
aI1
aI-2
aI-2
aI1
aI-2
aI0
aI-1
aI-1
aI2
aI0
aI1
aI0
aI1
aI0
aI0
aI0
aI-1
aI0
aI-2
aI0
aI-1
aI2
aI1
aI0
aI0
aI-2
aa(lp244
g39
aI0
aI2
aI0
aI-3
aI1
aI-1
aI0
aI1
aI-1
aI0
aI-1
aI2
aI0
aI-3
aI1
aI-2
aI0
aI0
aI0
aI2
aI0
aI1
aI0
aI-1
aI0
aI0
aI0
aI-1
aI0
aI-2
aI0
aI-1
aI2
aI1
aI0
aI0
aI-2
aa(lp245
g41
aI0
aI0
aI0
aI-2
aI2
aI-1
aI0
aI1
aI-1
aI0
aI0
aI2
aI1
aI-3
aI0
aI-2
aI0
aI-1
aI0
aI0
aI0
aI1
aI0
aI0
aI-1
aI0
aI0
aI-3
aI0
aI0
aI-2
aI-1
aI-1
aI1
aI0
aI0
aI-4
aa(lp246
g43
aI0
aI-2
aI0
aI-2
aI2
aI-1
aI0
aI1
aI-1
aI-1
aI0
aI2
aI-1
aI-1
aI0
aI-2
aI0
aI-1
aI0
aI1
aI-1
aI1
aI0
aI2
aI-1
aI0
aI-1
aI-1
aI0
aI-1
aI-1
aI-1
aI-1
aI1
aI0
aI0
aI-4
aaa(lp247
(lp248
g14
aI1721
aI352
ag15
aI2868
aI8709
ag16
aI3866
ag17
aI7514
aI9607
ag18
ag19
aI7959
aI9847
aI3326
aI707
aI6458
aI104439
aI6005
ag20
ag21
ag22
aI5284
aI5106
aI8392
aI8333
aI7381
aI5994
aI5802
ag23
aI6424
aI2068
aI7509
ag24
aI6248
ag25
aI104334
aa(lp249
g27
aI0
aI0
aI0
aI0
aI0
aI0
aI0
aI0
aI0
aI0
aI0
aI0
aI0
aI3
aI0
aI0
aI0
aI0
aI0
aI0
aI0
aI0
aI0
aI0
aI0
aI0
aI0
aI0
aI0
aI0
aI0
aI0
aI0
aI0
aI0
aI0
aI0
aa(lp250
g29
aI1
aI0
aI0
aI-1
aI-2
aI0
aI-1
aI0
aI0
aI0
aI-2
aI-4
aI-1
aI2
aI0
aI-1
aI0
aI0
aI0
aI-1
aI-1
aI0
aI-1
aI-2
aI0
aI1
aI1
aI1
aI0
aI0
aI2
aI0
aI0
aI0
aI-2
aI0
aI0
aa(lp251
g31
aI1
aI-2
aI0
aI-1
aI-3
aI0
aI-1
aI0
aI0
aI0
aI-2
aI-4
aI-2
aI3
aI-1
aI0
aI0
aI0
aI0
aI-1
aI-1
aI0
aI-1
aI-2
aI0
aI1
aI0
aI0
aI0
aI0
aI2
aI0
aI0
aI0
aI-2
aI0
aI0
aa(lp252
g33
aI1
aI0
aI1
aI-2
aI-2
aI0
aI-1
aI0
aI0
aI0
aI-2
aI-2
aI-1
aI-1
aI2
aI-1
aI0
aI1
aI0
aI-1
aI-1
aI0
aI-1
aI-2
aI0
aI0
aI1
aI1
aI0
aI-1
aI1
aI0
aI0
aI-1
aI-1
aI0
aI0
aa(lp253
g35
aI1
aI-1
aI1
aI-1
aI-3
aI0
aI-1
aI0
aI0
aI0
aI-2
aI-2
aI0
aI-1
aI2
aI-1
aI0
aI1
aI0
aI-1
aI-1
aI0
aI-1
aI-2
aI0
aI0
aI0
aI1
aI0
aI-1
aI2
aI0
aI0
aI-1
aI-1
aI0
aI-1
aa(lp254
g37
aI-1
aI2
aI0
aI-4
aI0
aI-1
aI0
aI1
aI-1
aI0
aI0
aI1
aI-2
aI-2
aI1
aI-2
aI0
aI-1
aI-1
aI2
aI0
aI1
aI0
aI1
aI0
aI0
aI0
aI-1
aI0
aI-2
aI0
aI-1
aI2
aI1
aI0
aI0
aI-2
aa(lp255
g39
aI0
aI2
aI0
aI-3
aI1
aI-1
aI0
aI1
aI-1
aI0
aI-1
aI2
aI0
aI-3
aI1
aI-2
aI0
aI0
aI0
aI2
aI0
aI1
aI0
aI-1
aI0
aI0
aI0
aI-1
aI0
aI-2
aI0
aI-1
aI2
aI1
aI0
aI0
aI-2
aa(lp256
g41
aI0
aI0
aI0
aI-2
aI2
aI-1
aI0
aI1
aI-1
aI0
aI0
aI2
aI1
aI-3
aI0
aI-2
aI0
aI-1
aI0
aI0
aI-1
aI1
aI0
aI0
aI-1
aI0
aI0
aI-3
aI0
aI0
aI-2
aI-1
aI-1
aI1
aI0
aI0
aI-4
aa(lp257
g43
aI0
aI-2
aI0
aI-2
aI2
aI-1
aI0
aI1
aI-1
aI-1
aI0
aI2
aI-1
aI-1
aI0
aI-2
aI0
aI-1
aI0
aI1
aI-1
aI1
aI0
aI2
aI-1
aI0
aI-1
aI-1
aI0
aI-1
aI-1
aI-1
aI-1
aI1
aI0
aI0
aI-4
aaassg10
(lp258
(lp259
(lp260
g14
aI1721
aI352
ag15
aI2868
aI8709
ag16
aI3866
ag17
aI7514
aI9607
ag18
ag19
aI7959
aI9847
aI3326
aI707
aI6458
aI104439
aI6005
ag20
ag21
ag22
aI5284
aI5106
aI8392
aI8333
aI7381
aI5994
aI5802
ag23
aI6424
aI2068
aI7509
ag24
aI6248
ag25
aI104334
aa(lp261
g27
aI0
aI0
aI0
aI0
aI0
aI0
aI0
aI0
aI0
aI0
aI0
aI0
aI0
aI0
aI0
aI0
aI0
aI0
aI0
aI0
aI0
aI0
aI0
aI0
aI0
aI0
aI0
aI0
aI0
aI0
aI0
aI0
aI0
aI0
aI0
aI0
aI0
aa(lp262
g29
aI1
aI0
aI0
aI-1
aI-2
aI0
aI-1
aI0
aI0
aI0
aI-2
aI-4
aI-1
aI2
aI0
aI-1
aI0
aI0
aI0
aI-1
aI-1
aI0
aI-1
aI-2
aI0
aI1
aI1
aI1
aI0
aI0
aI2
aI0
aI0
aI0
aI-2
aI0
aI0
aa(lp263
g31
aI1
aI-2
aI0
aI-1
aI-3
aI0
aI-1
aI0
aI0
aI0
aI-2
aI-4
aI-2
aI3
aI-1
aI0
aI0
aI0
aI0
aI-1
aI-1
aI0
aI-1
aI-2
aI0
aI1
aI0
aI0
aI0
aI0
aI2
aI0
aI0
aI0
aI-2
aI0
aI0
aa(lp264
g33
aI1
aI0
aI1
aI-2
aI-2
aI0
aI-1
aI0
aI0
aI0
aI-2
aI-2
aI-1
aI-1
aI2
aI-1
aI0
aI1
aI0
aI-1
aI-1
aI0
aI-1
aI-2
aI0
aI0
aI1
aI1
aI0
aI-1
aI1
aI0
aI0
aI-1
aI-1
aI0
aI0
aa(lp265
g35
aI1
aI-1
aI1
aI-1
aI-3
aI0
aI-1
aI0
aI0
aI0
aI-2
aI-2
aI0
aI-1
aI2
aI-1
aI0
aI1
aI0
aI-1
aI-1
aI0
aI-1
aI-2
aI0
aI0
aI0
ag65
aI0
aI-1
aI2
aI0
aI0
aI-1
aI-1
aI0
aI-1
aa(lp266
g37
aI-1
aI2
aI0
aI-4
aI0
aI-1
aI0
aI1
aI-1
aI0
aI0
aI1
aI-2
aI-2
aI1
aI-2
aI0
aI-1
aI-1
aI2
aI0
aI1
aI0
aI1
ag65
aI0
aI0
aI-1
aI0
aI-2
aI0
aI-1
aI2
aI1
aI0
aI0
aI-2
aa(lp267
g39
aI0
aI2
aI0
aI-3
aI1
aI-1
aI0
aI1
aI-1
aI0
aI-1
aI2
aI0
aI-3
aI1
aI-2
aI0
aI0
aI0
aI2
aI0
aI1
aI0
aI-1
aI0
aI0
aI0
aI-1
aI0
aI-2
aI0
aI-1
aI2
aI1
aI0
aI0
aI-2
aa(lp268
g41
aI0
aI0
aI0
aI-2
aI2
aI-1
aI0
aI1
aI-1
aI0
aI0
aI2
aI1
aI-3
aI0
aI-2
aI0
aI-1
aI0
aI0
aI0
aI1
aI0
aI0
aI-1
aI0
aI0
aI-3
aI0
aI0
aI-2
aI-1
aI-1
aI1
aI0
aI0
aI-4
aa(lp269
g43
aI0
aI-2
aI0
aI-2
aI2
aI-1
aI0
aI1
aI-1
aI-1
aI0
aI2
aI-1
aI-1
aI0
aI-2
aI0
aI-1
aI0
aI1
aI-1
aI1
aI0
aI2
aI-1
aI0
aI-1
aI-1
aI0
aI-1
aI-1
aI-1
aI-1
aI1
aI0
aI0
aI-4
aaa(lp270
(lp271
g14
aI1721
aI352
ag15
aI2868
aI8709
ag16
aI3866
ag17
aI7514
aI9607
ag18
ag19
aI7959
aI9847
aI3326
aI707
aI6458
aI104439
aI6005
ag20
ag21
ag22
aI5284
aI5106
aI8392
aI8333
aI7381
aI5994
aI5802
ag23
aI6424
aI2068
aI7509
ag24
aI6248
ag25
aI104334
aa(lp272
g27
aI0
aI0
aI0
aI0
aI0
aI0
aI0
aI0
aI0
aI0
aI0
aI0
aI0
ag65
aI0
aI0
aI0
aI0
aI0
aI0
aI0
aI0
aI0
aI0
aI0
aI0
aI0
aI0
aI0
aI0
aI0
aI0
aI0
aI0
aI0
aI0
aI0
aa(lp273
g29
aI1
aI0
aI0
aI-1
aI-2
aI0
aI-1
aI0
aI0
aI0
aI-2
aI-4
aI-1
aI2
aI0
aI-1
aI0
aI0
aI0
aI-1
aI-1
aI0
aI-1
aI-2
aI0
aI1
aI1
aI1
aI0
aI0
aI2
aI0
aI0
aI0
aI-2
aI0
aI0
aa(lp274
g31
aI1
aI-2
aI0
aI-1
aI-3
aI0
aI-1
aI0
aI0
aI0
aI-2
aI-4
aI-2
aI3
aI-1
aI0
aI0
aI0
aI0
aI-1
aI-1
aI0
aI-1
aI-2
aI0
aI1
aI0
aI0
aI0
aI0
aI2
aI0
aI0
aI0
aI-2
aI0
aI0
aa(lp275
g33
aI1
aI0
aI1
aI-2
aI-2
aI0
aI-1
aI0
aI0
aI0
aI-2
aI-2
aI-1
aI-1
aI2
aI-1
aI0
aI1
aI0
aI-1
aI-1
aI0
aI-1
aI-2
aI0
aI0
aI1
aI1
aI0
aI-1
aI1
aI0
aI0
aI-1
aI-1
aI0
aI0
aa(lp276
g35
aI1
aI-1
aI1
aI-1
aI-3
aI0
aI-1
aI0
aI0
aI0
aI-2
aI-2
aI0
aI-1
aI2
aI-1
aI0
aI1
aI0
aI-1
aI-1
aI0
aI-1
aI-2
aI0
aI0
aI0
aI1
aI0
aI-1
aI2
aI0
aI0
aI-1
aI-1
aI0
aI-1
aa(lp277
g37
aI-1
aI2
aI0
aI-4
aI0
aI-1
aI0
aI1
aI-1
aI0
aI0
aI1
aI-2
aI-2
aI1
aI-2
aI0
aI-1
aI-1
aI2
aI0
aI1
aI0
aI1
aI0
aI0
aI0
aI-1
aI0
aI-2
aI0
aI-1
aI2
aI1
aI0
aI0
aI-2
aa(lp278
g39
aI0
aI2
aI0
aI-3
aI1
aI-1
aI0
aI1
aI-1
aI0
aI-1
aI2
aI0
aI-3
aI1
aI-2
aI0
aI0
aI0
aI2
aI0
aI1
aI0
aI-1
aI0
aI0
aI0
aI-1
aI0
aI-2
aI0
aI-1
aI2
aI1
aI0
aI0
aI-2
aa(lp279
g41
aI0
aI0
aI0
aI-2
aI2
aI-1
aI0
aI1
aI-1
aI0
aI0
aI2
aI1
aI-3
aI0
aI-2
aI0
aI-1
aI0
aI0
ag65
aI1
aI0
aI0
aI-1
aI0
aI0
aI-3
aI0
aI0
aI-2
aI-1
aI-1
aI1
aI0
aI0
aI-4
aa(lp280
g43
aI0
aI-2
aI0
aI-2
aI2
aI-1
aI0
aI1
aI-1
aI-1
aI0
aI2
aI-1
aI-1
aI0
aI-2
aI0
aI-1
aI0
aI1
aI-1
aI1
aI0
aI2
aI-1
aI0
aI-1
aI-1
aI0
aI-1
aI-1
aI-1
aI-1
aI1
aI0
aI0
aI-4
aaasS'linearregressionendswithcutoff_imputedtables'
p281
(dp282
g10
(lp283
(lp284
(lp285
g14
aI1721
aI352
ag15
aI2868
aI8709
ag16
aI3866
ag17
aI7514
aI9607
ag18
ag19
aI7959
aI9847
aI3326
aI707
aI6458
aI104439
aI6005
ag20
ag21
ag22
aI5284
aI5106
aI8392
aI8333
aI7381
aI5994
aI5802
ag23
aI6424
aI2068
aI7509
ag24
aI6248
ag25
aI104334
aa(lp286
g27
aI0
aI0
aI0
aI0
aI0
aI0
aI0
aI0
aI0
aI0
aI0
aI0
aI0
aI0
aI0
aI0
aI0
aI0
aI0
aI0
aI0
aI0
aI0
aI0
aI0
aI0
aI0
aI0
aI0
aI0
aI0
aI0
aI0
aI0
aI0
aI0
aI0
aa(lp287
g29
aI1
aI0
aI0
aI-1
aI-2
aI0
aI-1
aI0
aI0
aI0
aI-2
aI-4
aI-1
aI2
aI0
aI-1
aI0
aI0
aI0
aI-1
aI-1
aI0
aI-1
aI-2
aI0
aI1
aI1
aI1
aI0
aI0
aI2
aI0
aI0
aI0
aI-2
aI0
aI0
aa(lp288
g31
aI1
aI-2
aI0
aI-1
aI-3
aI0
aI-1
aI0
aI0
aI0
aI-2
aI-4
aI-2
aI3
aI-1
aI0
aI0
aI0
aI0
aI-1
aI-1
aI0
aI-1
aI-2
aI0
aI1
aI0
aI0
aI0
aI0
aI2
aI0
aI0
aI0
aI-2
aI0
aI0
aa(lp289
g33
aI1
aI0
aI1
aI-2
aI-2
aI0
aI-1
aI0
aI0
aI0
aI-2
aI-2
aI-1
aI-1
aI2
aI-1
aI0
aI1
aI0
aI-1
aI-1
aI0
aI-1
aI-2
aI0
aI0
aI1
aI1
aI0
aI-1
aI1
aI0
aI0
aI-1
aI-1
aI0
aI0
aa(lp290
g35
aI1
aI-1
aI1
aI-1
aI-3
aI0
aI-1
aI0
aI0
aI0
aI-2
aI-2
aI0
aI-1
aI2
aI-1
aI0
aI1
aI0
aI-1
aI-1
aI0
aI-1
aI-2
aI0
aI0
aI0
aI-1
aI0
aI-1
aI2
aI0
aI0
aI-1
aI-1
aI0
aI-1
aa(lp291
g37
aI-1
aI2
aI0
aI-4
aI0
aI-1
aI0
aI1
aI-1
aI0
aI0
aI1
aI-2
aI-2
aI1
aI-2
aI0
aI-1
aI-1
aI2
aI0
aI1
aI0
aI1
aI0
aI0
aI0
aI-1
aI0
aI-2
aI0
aI-1
aI2
aI1
aI0
aI0
aI-2
aa(lp292
g39
aI0
aI2
aI0
aI-3
aI1
aI-1
aI0
aI1
aI-1
aI0
aI-1
aI2
aI0
aI-3
aI1
aI-2
aI0
aI0
aI0
aI2
aI0
aI1
aI0
aI-1
aI0
aI0
aI0
aI-1
aI0
aI-2
aI0
aI-1
aI2
aI1
aI0
aI0
aI-2
aa(lp293
g41
aI0
aI0
aI0
aI-2
aI2
aI-1
aI0
aI1
aI-1
aI0
aI0
aI2
aI1
aI-3
aI0
aI-2
aI0
aI-1
aI0
aI0
aI0
aI1
aI0
aI0
aI-1
aI0
aI0
aI-3
aI0
aI0
aI-2
aI-1
aI-1
aI1
aI0
aI0
aI-4
aa(lp294
g43
aI0
aI-2
aI0
aI-2
aI2
aI-1
aI0
aI1
aI-1
aI-1
aI0
aI2
aI-1
aI-1
aI0
aI-2
aI0
aI-1
aI0
aI1
aI-1
aI1
aI0
aI2
aI-1
aI0
aI-1
aI-1
aI0
aI-1
aI-1
aI-1
aI-1
aI1
aI0
aI0
aI-4
aaa(lp295
(lp296
g14
aI1721
aI352
ag15
aI2868
aI8709
ag16
aI3866
ag17
aI7514
aI9607
ag18
ag19
aI7959
aI9847
aI3326
aI707
aI6458
aI104439
aI6005
ag20
ag21
ag22
aI5284
aI5106
aI8392
aI8333
aI7381
aI5994
aI5802
ag23
aI6424
aI2068
aI7509
ag24
aI6248
ag25
aI104334
aa(lp297
g27
aI0
aI0
aI0
aI0
aI0
aI0
aI0
aI0
aI0
aI0
aI0
aI0
aI0
aI-1
aI0
aI0
aI0
aI0
aI0
aI0
aI0
aI0
aI0
aI0
aI0
aI0
aI0
aI0
aI0
aI0
aI0
aI0
aI0
aI0
aI0
aI0
aI0
aa(lp298
g29
aI1
aI0
aI0
aI-1
aI-2
aI0
aI-1
aI0
aI0
aI0
aI-2
aI-4
aI-1
aI2
aI0
aI-1
aI0
aI0
aI0
aI-1
aI-1
aI0
aI-1
aI-2
aI0
aI1
aI1
aI1
aI0
aI0
aI2
aI0
aI0
aI0
aI-2
aI0
aI0
aa(lp299
g31
aI1
aI-2
aI0
aI-1
aI-3
aI0
aI-1
aI0
aI0
aI0
aI-2
aI-4
aI-2
aI3
aI-1
aI0
aI0
aI0
aI0
aI-1
aI-1
aI0
aI-1
aI-2
aI0
aI1
aI0
aI0
aI0
aI0
aI2
aI0
aI0
aI0
aI-2
aI0
aI0
aa(lp300
g33
aI1
aI0
aI1
aI-2
aI-2
aI0
aI-1
aI0
aI0
aI0
aI-2
aI-2
aI-1
aI-1
aI2
aI-1
aI0
aI1
aI0
aI-1
aI-1
aI0
aI-1
aI-2
aI0
aI0
aI1
aI1
aI0
aI-1
aI1
aI0
aI0
aI-1
aI-1
aI0
aI0
aa(lp301
g35
aI1
aI-1
aI1
aI-1
aI-3
aI0
aI-1
aI0
aI0
aI0
aI-2
aI-2
aI0
aI-1
aI2
aI-1
aI0
aI1
aI0
aI-1
aI-1
aI0
aI-1
aI-2
aI0
aI0
aI0
aI1
aI0
aI-1
aI2
aI0
aI0
aI-1
aI-1
aI0
aI-1
aa(lp302
g37
aI-1
aI2
aI0
aI-4
aI0
aI-1
aI0
aI1
aI-1
aI0
aI0
aI1
aI-2
aI-2
aI1
aI-2
aI0
aI-1
aI-1
aI2
aI0
aI1
aI0
aI1
aI0
aI0
aI0
aI-1
aI0
aI-2
aI0
aI-1
aI2
aI1
aI0
aI0
aI-2
aa(lp303
g39
aI0
aI2
aI0
aI-3
aI1
aI-1
aI0
aI1
aI-1
aI0
aI-1
aI2
aI0
aI-3
aI1
aI-2
aI0
aI0
aI0
aI2
aI0
aI1
aI0
aI-1
aI0
aI0
aI0
aI-1
aI0
aI-2
aI0
aI-1
aI2
aI1
aI0
aI0
aI-2
aa(lp304
g41
aI0
aI0
aI0
aI-2
aI2
aI-1
aI0
aI1
aI-1
aI0
aI0
aI2
aI1
aI-3
aI0
aI-2
aI0
aI-1
aI0
aI0
aI-1
aI1
aI0
aI0
aI-1
aI0
aI0
aI-3
aI0
aI0
aI-2
aI-1
aI-1
aI1
aI0
aI0
aI-4
aa(lp305
g43
aI0
aI-2
aI0
aI-2
aI2
aI-1
aI0
aI1
aI-1
aI-1
aI0
aI2
aI-1
aI-1
aI0
aI-2
aI0
aI-1
aI0
aI1
aI-1
aI1
aI0
aI2
aI-1
aI0
aI-1
aI-1
aI0
aI-1
aI-1
aI-1
aI-1
aI1
aI0
aI0
aI-4
aaassS'Fitchforimputation_imputedtables'
p306
(dp307
g10
(lp308
(lp309
(lp310
g14
aI1721
aI352
ag15
aI2868
aI8709
ag16
aI3866
ag17
aI7514
aI9607
ag18
ag19
aI7959
aI9847
aI3326
aI707
aI6458
aI104439
aI6005
ag20
ag21
ag22
aI5284
aI5106
aI8392
aI8333
aI7381
aI5994
aI5802
ag23
aI6424
aI2068
aI7509
ag24
aI6248
ag25
aI104334
aa(lp311
g27
aI0
aI0
aI0
aI0
aI0
aI0
aI0
aI0
aI0
aI0
aI0
aI0
aI0
aI0
aI0
aI0
aI0
aI0
aI0
aI0
aI0
aI0
aI0
aI0
aI0
aI0
aI0
aI0
aI0
aI0
aI0
aI0
aI0
aI0
aI0
aI0
aI0
aa(lp312
g29
aI1
aI0
aI0
aI-1
aI-2
aI0
aI-1
aI0
aI0
aI0
aI-2
aI-4
aI-1
aI2
aI0
aI-1
aI0
aI0
aI0
aI-1
aI-1
aI0
aI-1
aI-2
aI0
aI1
aI1
aI1
aI0
aI0
aI2
aI0
aI0
aI0
aI-2
aI0
aI0
aa(lp313
g31
aI1
aI-2
aI0
aI-1
aI-3
aI0
aI-1
aI0
aI0
aI0
aI-2
aI-4
aI-2
aI3
aI-1
aI0
aI0
aI0
aI0
aI-1
aI-1
aI0
aI-1
aI-2
aI0
aI1
aI0
aI0
aI0
aI0
aI2
aI0
aI0
aI0
aI-2
aI0
aI0
aa(lp314
g33
aI1
aI0
aI1
aI-2
aI-2
aI0
aI-1
aI0
aI0
aI0
aI-2
aI-2
aI-1
aI-1
aI2
aI-1
aI0
aI1
aI0
aI-1
aI-1
aI0
aI-1
aI-2
aI0
aI0
aI1
aI1
aI0
aI-1
aI1
aI0
aI0
aI-1
aI-1
aI0
aI0
aa(lp315
g35
aI1
aI-1
aI1
aI-1
aI-3
aI0
aI-1
aI0
aI0
aI0
aI-2
aI-2
aI0
aI-1
aI2
aI-1
aI0
aI1
aI0
aI-1
aI-1
aI0
aI-1
aI-2
aI0
aI0
aI0
aI1
aI0
aI-1
aI2
aI0
aI0
aI-1
aI-1
aI0
aI-1
aa(lp316
g37
aI-1
aI2
aI0
aI-4
aI0
aI-1
aI0
aI1
aI-1
aI0
aI0
aI1
aI-2
aI-2
aI1
aI-2
aI0
aI-1
aI-1
aI2
aI0
aI1
aI0
aI1
aI0
aI0
aI0
aI-1
aI0
aI-2
aI0
aI-1
aI2
aI1
aI0
aI0
aI-2
aa(lp317
g39
aI0
aI2
aI0
aI-3
aI1
aI-1
aI0
aI1
aI-1
aI0
aI-1
aI2
aI0
aI-3
aI1
aI-2
aI0
aI0
aI0
aI2
aI0
aI1
aI0
aI-1
aI0
aI0
aI0
aI-1
aI0
aI-2
aI0
aI-1
aI2
aI1
aI0
aI0
aI-2
aa(lp318
g41
aI0
aI0
aI0
aI-2
aI2
aI-1
aI0
aI1
aI-1
aI0
aI0
aI2
aI1
aI-3
aI0
aI-2
aI0
aI-1
aI0
aI0
aI0
aI1
aI0
aI0
aI-1
aI0
aI0
aI-3
aI0
aI0
aI-2
aI-1
aI-1
aI1
aI0
aI0
aI-4
aa(lp319
g43
aI0
aI-2
aI0
aI-2
aI2
aI-1
aI0
aI1
aI-1
aI-1
aI0
aI2
aI-1
aI-1
aI0
aI-2
aI0
aI-1
aI0
aI1
aI-1
aI1
aI0
aI2
aI-1
aI0
aI-1
aI-1
aI0
aI-1
aI-1
aI-1
aI-1
aI1
aI0
aI0
aI-4
aaa(lp320
(lp321
g14
aI1721
aI352
ag15
aI2868
aI8709
ag16
aI3866
ag17
aI7514
aI9607
ag18
ag19
aI7959
aI9847
aI3326
aI707
aI6458
aI104439
aI6005
ag20
ag21
ag22
aI5284
aI5106
aI8392
aI8333
aI7381
aI5994
aI5802
ag23
aI6424
aI2068
aI7509
ag24
aI6248
ag25
aI104334
aa(lp322
g27
aI0
aI0
aI0
aI0
aI0
aI0
aI0
aI0
aI0
aI0
aI0
aI0
aI0
aI-3
aI0
aI0
aI0
aI0
aI0
aI0
aI0
aI0
aI0
aI0
aI0
aI0
aI0
aI0
aI0
aI0
aI0
aI0
aI0
aI0
aI0
aI0
aI0
aa(lp323
g29
aI1
aI0
aI0
aI-1
aI-2
aI0
aI-1
aI0
aI0
aI0
aI-2
aI-4
aI-1
aI2
aI0
aI-1
aI0
aI0
aI0
aI-1
aI-1
aI0
aI-1
aI-2
aI0
aI1
aI1
aI1
aI0
aI0
aI2
aI0
aI0
aI0
aI-2
aI0
aI0
aa(lp324
g31
aI1
aI-2
aI0
aI-1
aI-3
aI0
aI-1
aI0
aI0
aI0
aI-2
aI-4
aI-2
aI3
aI-1
aI0
aI0
aI0
aI0
aI-1
aI-1
aI0
aI-1
aI-2
aI0
aI1
aI0
aI0
aI0
aI0
aI2
aI0
aI0
aI0
aI-2
aI0
aI0
aa(lp325
g33
aI1
aI0
aI1
aI-2
aI-2
aI0
aI-1
aI0
aI0
aI0
aI-2
aI-2
aI-1
aI-1
aI2
aI-1
aI0
aI1
aI0
aI-1
aI-1
aI0
aI-1
aI-2
aI0
aI0
aI1
aI1
aI0
aI-1
aI1
aI0
aI0
aI-1
aI-1
aI0
aI0
aa(lp326
g35
aI1
aI-1
aI1
aI-1
aI-3
aI0
aI-1
aI0
aI0
aI0
aI-2
aI-2
aI0
aI-1
aI2
aI-1
aI0
aI1
aI0
aI-1
aI-1
aI0
aI-1
aI-2
aI0
aI0
aI0
aI1
aI0
aI-1
aI2
aI0
aI0
aI-1
aI-1
aI0
aI-1
aa(lp327
g37
aI-1
aI2
aI0
aI-4
aI0
aI-1
aI0
aI1
aI-1
aI0
aI0
aI1
aI-2
aI-2
aI1
aI-2
aI0
aI-1
aI-1
aI2
aI0
aI1
aI0
aI1
aI0
aI0
aI0
aI-1
aI0
aI-2
aI0
aI-1
aI2
aI1
aI0
aI0
aI-2
aa(lp328
g39
aI0
aI2
aI0
aI-3
aI1
aI-1
aI0
aI1
aI-1
aI0
aI-1
aI2
aI0
aI-3
aI1
aI-2
aI0
aI0
aI0
aI2
aI0
aI1
aI0
aI-1
aI0
aI0
aI0
aI-1
aI0
aI-2
aI0
aI-1
aI2
aI1
aI0
aI0
aI-2
aa(lp329
g41
aI0
aI0
aI0
aI-2
aI2
aI-1
aI0
aI1
aI-1
aI0
aI0
aI2
aI1
aI-3
aI0
aI-2
aI0
aI-1
aI0
aI0
aI-1
aI1
aI0
aI0
aI-1
aI0
aI0
aI-3
aI0
aI0
aI-2
aI-1
aI-1
aI1
aI0
aI0
aI-4
aa(lp330
g43
aI0
aI-2
aI0
aI-2
aI2
aI-1
aI0
aI1
aI-1
aI-1
aI0
aI2
aI-1
aI-1
aI0
aI-2
aI0
aI-1
aI0
aI1
aI-1
aI1
aI0
aI2
aI-1
aI0
aI-1
aI-1
aI0
aI-1
aI-1
aI-1
aI-1
aI1
aI0
aI0
aI-4
aaasssS'tableswith 1 missingentries'
p331
(dp332
S'onennimputationuniform_imputedtables'
p333
(dp334
g10
(lp335
(lp336
(lp337
g14
aI1721
aI352
ag15
aI2868
aI8709
ag16
aI3866
ag17
aI7514
aI9607
ag18
ag19
aI7959
aI9847
aI3326
aI707
aI6458
aI104439
aI6005
ag20
ag21
ag22
aI5284
aI5106
aI8392
aI8333
aI7381
aI5994
aI5802
ag23
aI6424
aI2068
aI7509
ag24
aI6248
ag25
aI104334
aa(lp338
g27
aI0
aI0
aI0
aI0
aI0
aI0
aI0
aI0
aI0
aI0
aI0
aI0
aI0
aI0
aI0
aI0
aI0
aI0
aI0
aI0
aI0
aI0
aI0
aI0
aI0
aI0
aI0
aI0
aI0
aI0
aI0
aI0
aI0
aI0
aI0
aI0
aI0
aa(lp339
g29
aI1
aI0
aI0
aI-1
aI-2
aI0
aI-1
aI0
aI0
aI0
aI-2
aI-4
aI-1
aI2
aI0
aI-1
aI0
aI0
aI0
aI-1
aI-1
aI0
aI-1
aI-2
aI0
aI1
aI1
aI1
aI0
aI0
aI2
aI0
aI0
aI0
aI-2
aI0
aI0
aa(lp340
g31
aI1
aI-2
aI0
aI-1
aI-3
aI0
aI-1
aI0
aI0
aI0
aI-2
aI-4
aI-2
aI3
aI-1
aI0
aI0
aI0
aI0
aI-1
aI-1
aI0
aI-1
aI-2
aI0
aI1
aI0
aI0
aI0
aI0
aI2
aI0
aI0
aI0
aI-2
aI0
aI0
aa(lp341
g33
aI1
aI0
aI1
aI-2
aI-2
aI0
aI-1
aI0
aI0
aI0
aI-2
aI-2
aI-1
aI-1
aI2
aI-1
aI0
aI1
aI0
aI-1
aI-1
aI0
aI-1
aI-2
aI0
aI0
aI1
aI1
aI0
aI-1
aI1
aI0
aI0
aI-1
aI-1
aI0
aI0
aa(lp342
g35
aI1
aI-1
aI1
aI-1
aI-3
aI0
aI-1
aI0
aI0
aI0
aI-2
aI-2
aI0
aI-1
aI2
aI-1
aI0
aI1
aI0
aI-1
aI-1
aI0
aI-1
aI-2
aI0
aI0
aI0
aI1
aI0
aI-1
aI2
aI0
aI0
aI-1
aI-1
aI0
aI-1
aa(lp343
g37
aI-1
aI2
aI0
aI-4
aI0
aI-1
aI0
aI1
aI-1
aI0
aI0
aI1
aI-2
aI-2
aI1
aI-2
aI0
aI-1
aI-1
aI2
aI0
aI1
aI0
aI1
aI0
aI0
aI0
aI-1
aI0
aI-2
aI0
aI-1
aI2
aI1
aI0
aI0
aI-2
aa(lp344
g39
aI0
aI2
aI0
aI-3
aI1
aI-1
aI0
aI1
aI-1
aI0
aI-1
aI2
aI0
aI-3
aI1
aI-2
aI0
aI0
aI0
aI2
aI0
aI1
aI0
aI-1
aI0
aI0
aI0
aI-1
aI0
aI-2
aI0
aI-1
aI2
aI1
aI0
aI0
aI-2
aa(lp345
g41
aI0
aI0
aI0
aI-2
aI2
aI-1
aI0
aI1
aI-1
aI0
aI0
aI2
aI1
aI-3
aI0
aI-2
aI0
aI-1
aI0
aI0
aI0
aI1
aI0
aI0
aI-1
aI0
aI0
aI-3
aI0
aI0
aI-2
aI-1
aI-1
aI1
aI0
aI0
aI-4
aa(lp346
g43
aI0
aI-2
aI0
aI-2
aI2
aI-1
aI0
aI1
aI-1
aI-1
aI0
aI2
aI-1
aI-1
aI0
aI-2
aI0
aI-1
aI0
aI1
aI-1
aI1
aI0
aI2
aI-1
aI0
aI-1
aI-1
aI0
aI-1
aI-1
aI-1
aI-1
aI1
aI0
aI0
aI-4
aaa(lp347
(lp348
g14
aI1721
aI352
ag15
aI2868
aI8709
ag16
aI3866
ag17
aI7514
aI9607
ag18
ag19
aI7959
aI9847
aI3326
aI707
aI6458
aI104439
aI6005
ag20
ag21
ag22
aI5284
aI5106
aI8392
aI8333
aI7381
aI5994
aI5802
ag23
aI6424
aI2068
aI7509
ag24
aI6248
ag25
aI104334
aa(lp349
g27
aI0
aI0
aI0
aI0
aI0
aI0
aI0
aI0
aI0
aI0
aI0
aI0
aI0
aI0
aI0
aI0
aI0
aI0
aI0
aI0
aI-1
aI0
aI0
aI0
aI0
aI0
aI0
aI0
aI0
aI0
aI0
aI0
aI0
aI0
aI0
aI0
aI0
aa(lp350
g29
aI1
aI0
aI0
aI-1
aI-2
aI0
aI-1
aI0
aI0
aI0
aI-2
aI-4
aI-1
aI2
aI0
aI-1
aI0
aI0
aI0
aI-1
aI-1
aI0
aI-1
aI-2
aI0
aI1
aI1
aI1
aI0
aI0
aI2
aI0
aI0
aI0
aI-2
aI0
aI0
aa(lp351
g31
aI1
aI-2
aI0
aI-1
aI-3
aI0
aI-1
aI0
aI0
aI0
aI-2
aI-4
aI-2
aI3
aI-1
aI0
aI0
aI0
aI0
aI-1
aI-1
aI0
aI-1
aI-2
aI0
aI1
aI0
aI0
aI0
aI0
aI2
aI0
aI0
aI0
aI-2
aI0
aI0
aa(lp352
g33
aI1
aI0
aI1
aI-2
aI-2
aI0
aI-1
aI0
aI0
aI0
aI-2
aI-2
aI-1
aI-1
aI2
aI-1
aI0
aI1
aI0
aI-1
aI-1
aI0
aI-1
aI-2
aI0
aI0
aI1
aI1
aI0
aI-1
aI1
aI0
aI0
aI-1
aI-1
aI0
aI0
aa(lp353
g35
aI1
aI-1
aI1
aI-1
aI-3
aI0
aI-1
aI0
aI0
aI0
aI-2
aI-2
aI0
aI-1
aI2
aI-1
aI0
aI1
aI0
aI-1
aI-1
aI0
aI-1
aI-2
aI0
aI0
aI0
aI1
aI0
aI-1
aI2
aI0
aI0
aI-1
aI-1
aI0
aI-1
aa(lp354
g37
aI-1
aI2
aI0
aI-4
aI0
aI-1
aI0
aI1
aI-1
aI0
aI0
aI1
aI-2
aI-2
aI1
aI-2
aI0
aI-1
aI-1
aI2
aI0
aI1
aI0
aI1
aI0
aI0
aI0
aI-1
aI0
aI-2
aI0
aI-1
aI2
aI1
aI0
aI0
aI-2
aa(lp355
g39
aI0
aI2
aI0
aI-3
aI1
aI-1
aI0
aI1
aI-1
aI0
aI-1
aI2
aI0
aI-3
aI1
aI-2
aI0
aI0
aI0
aI2
aI0
aI1
aI0
aI-1
aI0
aI0
aI0
aI-1
aI0
aI-2
aI0
aI-1
aI2
aI1
aI0
aI0
aI-2
aa(lp356
g41
aI0
aI0
aI0
aI-2
aI2
aI-1
aI0
aI1
aI-1
aI0
aI0
aI2
aI1
aI-3
aI0
aI-2
aI0
aI-1
aI0
aI0
aI0
aI1
aI0
aI0
aI-1
aI0
aI0
aI-3
aI0
aI0
aI-2
aI-1
aI-1
aI1
aI0
aI0
aI-4
aa(lp357
g43
aI0
aI-2
aI0
aI-2
aI2
aI-1
aI0
aI1
aI-1
aI-1
aI0
aI2
aI-1
aI-1
aI0
aI-2
aI0
aI-1
aI0
aI1
aI-1
aI1
aI0
aI2
aI-1
aI0
aI-1
aI-1
aI0
aI-1
aI-1
aI-1
aI-1
aI1
aI0
aI0
aI-4
aaassg10
(lp358
(lp359
(lp360
g14
aI1721
aI352
ag15
aI2868
aI8709
ag16
aI3866
ag17
aI7514
aI9607
ag18
ag19
aI7959
aI9847
aI3326
aI707
aI6458
aI104439
aI6005
ag20
ag21
ag22
aI5284
aI5106
aI8392
aI8333
aI7381
aI5994
aI5802
ag23
aI6424
aI2068
aI7509
ag24
aI6248
ag25
aI104334
aa(lp361
g27
aI0
aI0
aI0
aI0
aI0
aI0
aI0
aI0
aI0
aI0
aI0
aI0
aI0
aI0
aI0
aI0
aI0
aI0
aI0
aI0
aI0
aI0
aI0
aI0
aI0
aI0
aI0
aI0
aI0
aI0
aI0
aI0
aI0
aI0
aI0
aI0
aI0
aa(lp362
g29
aI1
aI0
aI0
aI-1
aI-2
aI0
aI-1
aI0
aI0
aI0
aI-2
aI-4
aI-1
aI2
aI0
aI-1
aI0
aI0
aI0
aI-1
aI-1
aI0
aI-1
aI-2
aI0
aI1
aI1
aI1
aI0
aI0
aI2
aI0
aI0
aI0
aI-2
aI0
aI0
aa(lp363
g31
aI1
aI-2
aI0
aI-1
aI-3
aI0
aI-1
aI0
aI0
aI0
aI-2
aI-4
aI-2
aI3
aI-1
aI0
aI0
aI0
aI0
aI-1
aI-1
aI0
aI-1
aI-2
aI0
aI1
aI0
aI0
aI0
aI0
aI2
aI0
aI0
aI0
aI-2
aI0
aI0
aa(lp364
g33
aI1
aI0
aI1
aI-2
aI-2
aI0
aI-1
aI0
aI0
aI0
aI-2
aI-2
aI-1
aI-1
aI2
aI-1
aI0
aI1
aI0
aI-1
aI-1
aI0
aI-1
aI-2
aI0
aI0
aI1
aI1
aI0
aI-1
aI1
aI0
aI0
aI-1
aI-1
aI0
aI0
aa(lp365
g35
aI1
aI-1
aI1
aI-1
aI-3
aI0
aI-1
aI0
aI0
aI0
aI-2
aI-2
aI0
aI-1
aI2
aI-1
aI0
aI1
aI0
aI-1
aI-1
aI0
aI-1
aI-2
aI0
aI0
aI0
aI1
aI0
aI-1
aI2
aI0
aI0
aI-1
aI-1
aI0
aI-1
aa(lp366
g37
aI-1
aI2
aI0
aI-4
aI0
aI-1
aI0
aI1
aI-1
aI0
aI0
aI1
aI-2
aI-2
aI1
aI-2
aI0
aI-1
aI-1
aI2
aI0
aI1
aI0
aI1
aI0
aI0
aI0
aI-1
aI0
aI-2
aI0
aI-1
aI2
aI1
aI0
aI0
aI-2
aa(lp367
g39
aI0
aI2
aI0
aI-3
aI1
aI-1
aI0
aI1
aI-1
aI0
aI-1
aI2
aI0
aI-3
aI1
aI-2
aI0
aI0
aI0
aI2
aI0
aI1
aI0
aI-1
aI0
aI0
aI0
aI-1
aI0
aI-2
aI0
aI-1
aI2
aI1
aI0
aI0
aI-2
aa(lp368
g41
aI0
aI0
aI0
aI-2
aI2
aI-1
aI0
aI1
aI-1
aI0
aI0
aI2
aI1
aI-3
aI0
aI-2
aI0
aI-1
aI0
aI0
aI0
aI1
aI0
aI0
aI-1
aI0
aI0
aI-3
aI0
aI0
aI-2
aI-1
aI-1
aI1
aI0
ag65
aI-4
aa(lp369
g43
aI0
aI-2
aI0
aI-2
aI2
aI-1
aI0
aI1
aI-1
aI-1
aI0
aI2
aI-1
aI-1
aI0
aI-2
aI0
aI-1
aI0
aI1
aI-1
aI1
aI0
aI2
aI-1
aI0
aI-1
aI-1
aI0
aI-1
aI-1
aI-1
aI-1
aI1
aI0
aI0
aI-4
aaa(lp370
(lp371
g14
aI1721
aI352
ag15
aI2868
aI8709
ag16
aI3866
ag17
aI7514
aI9607
ag18
ag19
aI7959
aI9847
aI3326
aI707
aI6458
aI104439
aI6005
ag20
ag21
ag22
aI5284
aI5106
aI8392
aI8333
aI7381
aI5994
aI5802
ag23
aI6424
aI2068
aI7509
ag24
aI6248
ag25
aI104334
aa(lp372
g27
aI0
aI0
aI0
aI0
aI0
aI0
aI0
aI0
aI0
aI0
aI0
aI0
aI0
aI0
aI0
aI0
aI0
aI0
aI0
aI0
ag65
aI0
aI0
aI0
aI0
aI0
aI0
aI0
aI0
aI0
aI0
aI0
aI0
aI0
aI0
aI0
aI0
aa(lp373
g29
aI1
aI0
aI0
aI-1
aI-2
aI0
aI-1
aI0
aI0
aI0
aI-2
aI-4
aI-1
aI2
aI0
aI-1
aI0
aI0
aI0
aI-1
aI-1
aI0
aI-1
aI-2
aI0
aI1
aI1
aI1
aI0
aI0
aI2
aI0
aI0
aI0
aI-2
aI0
aI0
aa(lp374
g31
aI1
aI-2
aI0
aI-1
aI-3
aI0
aI-1
aI0
aI0
aI0
aI-2
aI-4
aI-2
aI3
aI-1
aI0
aI0
aI0
aI0
aI-1
aI-1
aI0
aI-1
aI-2
aI0
aI1
aI0
aI0
aI0
aI0
aI2
aI0
aI0
aI0
aI-2
aI0
aI0
aa(lp375
g33
aI1
aI0
aI1
aI-2
aI-2
aI0
aI-1
aI0
aI0
aI0
aI-2
aI-2
aI-1
aI-1
aI2
aI-1
aI0
aI1
aI0
aI-1
aI-1
aI0
aI-1
aI-2
aI0
aI0
aI1
aI1
aI0
aI-1
aI1
aI0
aI0
aI-1
aI-1
aI0
aI0
aa(lp376
g35
aI1
aI-1
aI1
aI-1
aI-3
aI0
aI-1
aI0
aI0
aI0
aI-2
aI-2
aI0
aI-1
aI2
aI-1
aI0
aI1
aI0
aI-1
aI-1
aI0
aI-1
aI-2
aI0
aI0
aI0
aI1
aI0
aI-1
aI2
aI0
aI0
aI-1
aI-1
aI0
aI-1
aa(lp377
g37
aI-1
aI2
aI0
aI-4
aI0
aI-1
aI0
aI1
aI-1
aI0
aI0
aI1
aI-2
aI-2
aI1
aI-2
aI0
aI-1
aI-1
aI2
aI0
aI1
aI0
aI1
aI0
aI0
aI0
aI-1
aI0
aI-2
aI0
aI-1
aI2
aI1
aI0
aI0
aI-2
aa(lp378
g39
aI0
aI2
aI0
aI-3
aI1
aI-1
aI0
aI1
aI-1
aI0
aI-1
aI2
aI0
aI-3
aI1
aI-2
aI0
aI0
aI0
aI2
aI0
aI1
aI0
aI-1
aI0
aI0
aI0
aI-1
aI0
aI-2
aI0
aI-1
aI2
aI1
aI0
aI0
aI-2
aa(lp379
g41
aI0
aI0
aI0
aI-2
aI2
aI-1
aI0
aI1
aI-1
aI0
aI0
aI2
aI1
aI-3
aI0
aI-2
aI0
aI-1
aI0
aI0
aI0
aI1
aI0
aI0
aI-1
aI0
aI0
aI-3
aI0
aI0
aI-2
aI-1
aI-1
aI1
aI0
aI0
aI-4
aa(lp380
g43
aI0
aI-2
aI0
aI-2
aI2
aI-1
aI0
aI1
aI-1
aI-1
aI0
aI2
aI-1
aI-1
aI0
aI-2
aI0
aI-1
aI0
aI1
aI-1
aI1
aI0
aI2
aI-1
aI0
aI-1
aI-1
aI0
aI-1
aI-1
aI-1
aI-1
aI1
aI0
aI0
aI-4
aaasS'linearregressionendswithcutoff_imputedtables'
p381
(dp382
g10
(lp383
(lp384
(lp385
g14
aI1721
aI352
ag15
aI2868
aI8709
ag16
aI3866
ag17
aI7514
aI9607
ag18
ag19
aI7959
aI9847
aI3326
aI707
aI6458
aI104439
aI6005
ag20
ag21
ag22
aI5284
aI5106
aI8392
aI8333
aI7381
aI5994
aI5802
ag23
aI6424
aI2068
aI7509
ag24
aI6248
ag25
aI104334
aa(lp386
g27
aI0
aI0
aI0
aI0
aI0
aI0
aI0
aI0
aI0
aI0
aI0
aI0
aI0
aI0
aI0
aI0
aI0
aI0
aI0
aI0
aI0
aI0
aI0
aI0
aI0
aI0
aI0
aI0
aI0
aI0
aI0
aI0
aI0
aI0
aI0
aI0
aI0
aa(lp387
g29
aI1
aI0
aI0
aI-1
aI-2
aI0
aI-1
aI0
aI0
aI0
aI-2
aI-4
aI-1
aI2
aI0
aI-1
aI0
aI0
aI0
aI-1
aI-1
aI0
aI-1
aI-2
aI0
aI1
aI1
aI1
aI0
aI0
aI2
aI0
aI0
aI0
aI-2
aI0
aI0
aa(lp388
g31
aI1
aI-2
aI0
aI-1
aI-3
aI0
aI-1
aI0
aI0
aI0
aI-2
aI-4
aI-2
aI3
aI-1
aI0
aI0
aI0
aI0
aI-1
aI-1
aI0
aI-1
aI-2
aI0
aI1
aI0
aI0
aI0
aI0
aI2
aI0
aI0
aI0
aI-2
aI0
aI0
aa(lp389
g33
aI1
aI0
aI1
aI-2
aI-2
aI0
aI-1
aI0
aI0
aI0
aI-2
aI-2
aI-1
aI-1
aI2
aI-1
aI0
aI1
aI0
aI-1
aI-1
aI0
aI-1
aI-2
aI0
aI0
aI1
aI1
aI0
aI-1
aI1
aI0
aI0
aI-1
aI-1
aI0
aI0
aa(lp390
g35
aI1
aI-1
aI1
aI-1
aI-3
aI0
aI-1
aI0
aI0
aI0
aI-2
aI-2
aI0
aI-1
aI2
aI-1
aI0
aI1
aI0
aI-1
aI-1
aI0
aI-1
aI-2
aI0
aI0
aI0
aI1
aI0
aI-1
aI2
aI0
aI0
aI-1
aI-1
aI0
aI-1
aa(lp391
g37
aI-1
aI2
aI0
aI-4
aI0
aI-1
aI0
aI1
aI-1
aI0
aI0
aI1
aI-2
aI-2
aI1
aI-2
aI0
aI-1
aI-1
aI2
aI0
aI1
aI0
aI1
aI0
aI0
aI0
aI-1
aI0
aI-2
aI0
aI-1
aI2
aI1
aI0
aI0
aI-2
aa(lp392
g39
aI0
aI2
aI0
aI-3
aI1
aI-1
aI0
aI1
aI-1
aI0
aI-1
aI2
aI0
aI-3
aI1
aI-2
aI0
aI0
aI0
aI2
aI0
aI1
aI0
aI-1
aI0
aI0
aI0
aI-1
aI0
aI-2
aI0
aI-1
aI2
aI1
aI0
aI0
aI-2
aa(lp393
g41
aI0
aI0
aI0
aI-2
aI2
aI-1
aI0
aI1
aI-1
aI0
aI0
aI2
aI1
aI-3
aI0
aI-2
aI0
aI-1
aI0
aI0
aI0
aI1
aI0
aI0
aI-1
aI0
aI0
aI-3
aI0
aI0
aI-2
aI-1
aI-1
aI1
aI0
aI0
aI-4
aa(lp394
g43
aI0
aI-2
aI0
aI-2
aI2
aI-1
aI0
aI1
aI-1
aI-1
aI0
aI2
aI-1
aI-1
aI0
aI-2
aI0
aI-1
aI0
aI1
aI-1
aI1
aI0
aI2
aI-1
aI0
aI-1
aI-1
aI0
aI-1
aI-1
aI-1
aI-1
aI1
aI0
aI0
aI-4
aaa(lp395
(lp396
g14
aI1721
aI352
ag15
aI2868
aI8709
ag16
aI3866
ag17
aI7514
aI9607
ag18
ag19
aI7959
aI9847
aI3326
aI707
aI6458
aI104439
aI6005
ag20
ag21
ag22
aI5284
aI5106
aI8392
aI8333
aI7381
aI5994
aI5802
ag23
aI6424
aI2068
aI7509
ag24
aI6248
ag25
aI104334
aa(lp397
g27
aI0
aI0
aI0
aI0
aI0
aI0
aI0
aI0
aI0
aI0
aI0
aI0
aI0
aI0
aI0
aI0
aI0
aI0
aI0
aI0
aI-1
aI0
aI0
aI0
aI0
aI0
aI0
aI0
aI0
aI0
aI0
aI0
aI0
aI0
aI0
aI0
aI0
aa(lp398
g29
aI1
aI0
aI0
aI-1
aI-2
aI0
aI-1
aI0
aI0
aI0
aI-2
aI-4
aI-1
aI2
aI0
aI-1
aI0
aI0
aI0
aI-1
aI-1
aI0
aI-1
aI-2
aI0
aI1
aI1
aI1
aI0
aI0
aI2
aI0
aI0
aI0
aI-2
aI0
aI0
aa(lp399
g31
aI1
aI-2
aI0
aI-1
aI-3
aI0
aI-1
aI0
aI0
aI0
aI-2
aI-4
aI-2
aI3
aI-1
aI0
aI0
aI0
aI0
aI-1
aI-1
aI0
aI-1
aI-2
aI0
aI1
aI0
aI0
aI0
aI0
aI2
aI0
aI0
aI0
aI-2
aI0
aI0
aa(lp400
g33
aI1
aI0
aI1
aI-2
aI-2
aI0
aI-1
aI0
aI0
aI0
aI-2
aI-2
aI-1
aI-1
aI2
aI-1
aI0
aI1
aI0
aI-1
aI-1
aI0
aI-1
aI-2
aI0
aI0
aI1
aI1
aI0
aI-1
aI1
aI0
aI0
aI-1
aI-1
aI0
aI0
aa(lp401
g35
aI1
aI-1
aI1
aI-1
aI-3
aI0
aI-1
aI0
aI0
aI0
aI-2
aI-2
aI0
aI-1
aI2
aI-1
aI0
aI1
aI0
aI-1
aI-1
aI0
aI-1
aI-2
aI0
aI0
aI0
aI1
aI0
aI-1
aI2
aI0
aI0
aI-1
aI-1
aI0
aI-1
aa(lp402
g37
aI-1
aI2
aI0
aI-4
aI0
aI-1
aI0
aI1
aI-1
aI0
aI0
aI1
aI-2
aI-2
aI1
aI-2
aI0
aI-1
aI-1
aI2
aI0
aI1
aI0
aI1
aI0
aI0
aI0
aI-1
aI0
aI-2
aI0
aI-1
aI2
aI1
aI0
aI0
aI-2
aa(lp403
g39
aI0
aI2
aI0
aI-3
aI1
aI-1
aI0
aI1
aI-1
aI0
aI-1
aI2
aI0
aI-3
aI1
aI-2
aI0
aI0
aI0
aI2
aI0
aI1
aI0
aI-1
aI0
aI0
aI0
aI-1
aI0
aI-2
aI0
aI-1
aI2
aI1
aI0
aI0
aI-2
aa(lp404
g41
aI0
aI0
aI0
aI-2
aI2
aI-1
aI0
aI1
aI-1
aI0
aI0
aI2
aI1
aI-3
aI0
aI-2
aI0
aI-1
aI0
aI0
aI0
aI1
aI0
aI0
aI-1
aI0
aI0
aI-3
aI0
aI0
aI-2
aI-1
aI-1
aI1
aI0
aI0
aI-4
aa(lp405
g43
aI0
aI-2
aI0
aI-2
aI2
aI-1
aI0
aI1
aI-1
aI-1
aI0
aI2
aI-1
aI-1
aI0
aI-2
aI0
aI-1
aI0
aI1
aI-1
aI1
aI0
aI2
aI-1
aI0
aI-1
aI-1
aI0
aI-1
aI-1
aI-1
aI-1
aI1
aI0
aI0
aI-4
aaassS'Fitchforimputation_imputedtables'
p406
(dp407
g10
(lp408
(lp409
(lp410
g14
aI1721
aI352
ag15
aI2868
aI8709
ag16
aI3866
ag17
aI7514
aI9607
ag18
ag19
aI7959
aI9847
aI3326
aI707
aI6458
aI104439
aI6005
ag20
ag21
ag22
aI5284
aI5106
aI8392
aI8333
aI7381
aI5994
aI5802
ag23
aI6424
aI2068
aI7509
ag24
aI6248
ag25
aI104334
aa(lp411
g27
aI0
aI0
aI0
aI0
aI0
aI0
aI0
aI0
aI0
aI0
aI0
aI0
aI0
aI0
aI0
aI0
aI0
aI0
aI0
aI0
aI0
aI0
aI0
aI0
aI0
aI0
aI0
aI0
aI0
aI0
aI0
aI0
aI0
aI0
aI0
aI0
aI0
aa(lp412
g29
aI1
aI0
aI0
aI-1
aI-2
aI0
aI-1
aI0
aI0
aI0
aI-2
aI-4
aI-1
aI2
aI0
aI-1
aI0
aI0
aI0
aI-1
aI-1
aI0
aI-1
aI-2
aI0
aI1
aI1
aI1
aI0
aI0
aI2
aI0
aI0
aI0
aI-2
aI0
aI0
aa(lp413
g31
aI1
aI-2
aI0
aI-1
aI-3
aI0
aI-1
aI0
aI0
aI0
aI-2
aI-4
aI-2
aI3
aI-1
aI0
aI0
aI0
aI0
aI-1
aI-1
aI0
aI-1
aI-2
aI0
aI1
aI0
aI0
aI0
aI0
aI2
aI0
aI0
aI0
aI-2
aI0
aI0
aa(lp414
g33
aI1
aI0
aI1
aI-2
aI-2
aI0
aI-1
aI0
aI0
aI0
aI-2
aI-2
aI-1
aI-1
aI2
aI-1
aI0
aI1
aI0
aI-1
aI-1
aI0
aI-1
aI-2
aI0
aI0
aI1
aI1
aI0
aI-1
aI1
aI0
aI0
aI-1
aI-1
aI0
aI0
aa(lp415
g35
aI1
aI-1
aI1
aI-1
aI-3
aI0
aI-1
aI0
aI0
aI0
aI-2
aI-2
aI0
aI-1
aI2
aI-1
aI0
aI1
aI0
aI-1
aI-1
aI0
aI-1
aI-2
aI0
aI0
aI0
aI1
aI0
aI-1
aI2
aI0
aI0
aI-1
aI-1
aI0
aI-1
aa(lp416
g37
aI-1
aI2
aI0
aI-4
aI0
aI-1
aI0
aI1
aI-1
aI0
aI0
aI1
aI-2
aI-2
aI1
aI-2
aI0
aI-1
aI-1
aI2
aI0
aI1
aI0
aI1
aI0
aI0
aI0
aI-1
aI0
aI-2
aI0
aI-1
aI2
aI1
aI0
aI0
aI-2
aa(lp417
g39
aI0
aI2
aI0
aI-3
aI1
aI-1
aI0
aI1
aI-1
aI0
aI-1
aI2
aI0
aI-3
aI1
aI-2
aI0
aI0
aI0
aI2
aI0
aI1
aI0
aI-1
aI0
aI0
aI0
aI-1
aI0
aI-2
aI0
aI-1
aI2
aI1
aI0
aI0
aI-2
aa(lp418
g41
aI0
aI0
aI0
aI-2
aI2
aI-1
aI0
aI1
aI-1
aI0
aI0
aI2
aI1
aI-3
aI0
aI-2
aI0
aI-1
aI0
aI0
aI0
aI1
aI0
aI0
aI-1
aI0
aI0
aI-3
aI0
aI0
aI-2
aI-1
aI-1
aI1
aI0
aI0
aI-4
aa(lp419
g43
aI0
aI-2
aI0
aI-2
aI2
aI-1
aI0
aI1
aI-1
aI-1
aI0
aI2
aI-1
aI-1
aI0
aI-2
aI0
aI-1
aI0
aI1
aI-1
aI1
aI0
aI2
aI-1
aI0
aI-1
aI-1
aI0
aI-1
aI-1
aI-1
aI-1
aI1
aI0
aI0
aI-4
aaa(lp420
(lp421
g14
aI1721
aI352
ag15
aI2868
aI8709
ag16
aI3866
ag17
aI7514
aI9607
ag18
ag19
aI7959
aI9847
aI3326
aI707
aI6458
aI104439
aI6005
ag20
ag21
ag22
aI5284
aI5106
aI8392
aI8333
aI7381
aI5994
aI5802
ag23
aI6424
aI2068
aI7509
ag24
aI6248
ag25
aI104334
aa(lp422
g27
aI0
aI0
aI0
aI0
aI0
aI0
aI0
aI0
aI0
aI0
aI0
aI0
aI0
aI0
aI0
aI0
aI0
aI0
aI0
aI0
aI0
aI0
aI0
aI0
aI0
aI0
aI0
aI0
aI0
aI0
aI0
aI0
aI0
aI0
aI0
aI0
aI0
aa(lp423
g29
aI1
aI0
aI0
aI-1
aI-2
aI0
aI-1
aI0
aI0
aI0
aI-2
aI-4
aI-1
aI2
aI0
aI-1
aI0
aI0
aI0
aI-1
aI-1
aI0
aI-1
aI-2
aI0
aI1
aI1
aI1
aI0
aI0
aI2
aI0
aI0
aI0
aI-2
aI0
aI0
aa(lp424
g31
aI1
aI-2
aI0
aI-1
aI-3
aI0
aI-1
aI0
aI0
aI0
aI-2
aI-4
aI-2
aI3
aI-1
aI0
aI0
aI0
aI0
aI-1
aI-1
aI0
aI-1
aI-2
aI0
aI1
aI0
aI0
aI0
aI0
aI2
aI0
aI0
aI0
aI-2
aI0
aI0
aa(lp425
g33
aI1
aI0
aI1
aI-2
aI-2
aI0
aI-1
aI0
aI0
aI0
aI-2
aI-2
aI-1
aI-1
aI2
aI-1
aI0
aI1
aI0
aI-1
aI-1
aI0
aI-1
aI-2
aI0
aI0
aI1
aI1
aI0
aI-1
aI1
aI0
aI0
aI-1
aI-1
aI0
aI0
aa(lp426
g35
aI1
aI-1
aI1
aI-1
aI-3
aI0
aI-1
aI0
aI0
aI0
aI-2
aI-2
aI0
aI-1
aI2
aI-1
aI0
aI1
aI0
aI-1
aI-1
aI0
aI-1
aI-2
aI0
aI0
aI0
aI1
aI0
aI-1
aI2
aI0
aI0
aI-1
aI-1
aI0
aI-1
aa(lp427
g37
aI-1
aI2
aI0
aI-4
aI0
aI-1
aI0
aI1
aI-1
aI0
aI0
aI1
aI-2
aI-2
aI1
aI-2
aI0
aI-1
aI-1
aI2
aI0
aI1
aI0
aI1
aI0
aI0
aI0
aI-1
aI0
aI-2
aI0
aI-1
aI2
aI1
aI0
aI0
aI-2
aa(lp428
g39
aI0
aI2
aI0
aI-3
aI1
aI-1
aI0
aI1
aI-1
aI0
aI-1
aI2
aI0
aI-3
aI1
aI-2
aI0
aI0
aI0
aI2
aI0
aI1
aI0
aI-1
aI0
aI0
aI0
aI-1
aI0
aI-2
aI0
aI-1
aI2
aI1
aI0
aI0
aI-2
aa(lp429
g41
aI0
aI0
aI0
aI-2
aI2
aI-1
aI0
aI1
aI-1
aI0
aI0
aI2
aI1
aI-3
aI0
aI-2
aI0
aI-1
aI0
aI0
aI0
aI1
aI0
aI0
aI-1
aI0
aI0
aI-3
aI0
aI0
aI-2
aI-1
aI-1
aI1
aI0
aI0
aI-4
aa(lp430
g43
aI0
aI-2
aI0
aI-2
aI2
aI-1
aI0
aI1
aI-1
aI-1
aI0
aI2
aI-1
aI-1
aI0
aI-2
aI0
aI-1
aI0
aI1
aI-1
aI1
aI0
aI2
aI-1
aI0
aI-1
aI-1
aI0
aI-1
aI-1
aI-1
aI-1
aI1
aI0
aI0
aI-4
aaassssS'originaltable'
p431
(lp432
(lp433
g14
aI1721
aI352
ag15
aI2868
aI8709
ag16
aI3866
ag17
aI7514
aI9607
ag18
ag19
aI7959
aI9847
aI3326
aI707
aI6458
aI104439
aI6005
ag20
ag21
ag22
aI5284
aI5106
aI8392
aI8333
aI7381
aI5994
aI5802
ag23
aI6424
aI2068
aI7509
ag24
aI6248
ag25
aI104334
aa(lp434
g27
aI0
aI0
aI0
aI0
aI0
aI0
aI0
aI0
aI0
aI0
aI0
aI0
aI0
aI0
aI0
aI0
aI0
aI0
aI0
aI0
aI0
aI0
aI0
aI0
aI0
aI0
aI0
aI0
aI0
aI0
aI0
aI0
aI0
aI0
aI0
aI0
aI0
aa(lp435
g29
aI1
aI0
aI0
aI-1
aI-2
aI0
aI-1
aI0
aI0
aI0
aI-2
aI-4
aI-1
aI2
aI0
aI-1
aI0
aI0
aI0
aI-1
aI-1
aI0
aI-1
aI-2
aI0
aI1
aI1
aI1
aI0
aI0
aI2
aI0
aI0
aI0
aI-2
aI0
aI0
aa(lp436
g31
aI1
aI-2
aI0
aI-1
aI-3
aI0
aI-1
aI0
aI0
aI0
aI-2
aI-4
aI-2
aI3
aI-1
aI0
aI0
aI0
aI0
aI-1
aI-1
aI0
aI-1
aI-2
aI0
aI1
aI0
aI0
aI0
aI0
aI2
aI0
aI0
aI0
aI-2
aI0
aI0
aa(lp437
g33
aI1
aI0
aI1
aI-2
aI-2
aI0
aI-1
aI0
aI0
aI0
aI-2
aI-2
aI-1
aI-1
aI2
aI-1
aI0
aI1
aI0
aI-1
aI-1
aI0
aI-1
aI-2
aI0
aI0
aI1
aI1
aI0
aI-1
aI1
aI0
aI0
aI-1
aI-1
aI0
aI0
aa(lp438
g35
aI1
aI-1
aI1
aI-1
aI-3
aI0
aI-1
aI0
aI0
aI0
aI-2
aI-2
aI0
aI-1
aI2
aI-1
aI0
aI1
aI0
aI-1
aI-1
aI0
aI-1
aI-2
aI0
aI0
aI0
aI1
aI0
aI-1
aI2
aI0
aI0
aI-1
aI-1
aI0
aI-1
aa(lp439
g37
aI-1
aI2
aI0
aI-4
aI0
aI-1
aI0
aI1
aI-1
aI0
aI0
aI1
aI-2
aI-2
aI1
aI-2
aI0
aI-1
aI-1
aI2
aI0
aI1
aI0
aI1
aI0
aI0
aI0
aI-1
aI0
aI-2
aI0
aI-1
aI2
aI1
aI0
aI0
aI-2
aa(lp440
g39
aI0
aI2
aI0
aI-3
aI1
aI-1
aI0
aI1
aI-1
aI0
aI-1
aI2
aI0
aI-3
aI1
aI-2
aI0
aI0
aI0
aI2
aI0
aI1
aI0
aI-1
aI0
aI0
aI0
aI-1
aI0
aI-2
aI0
aI-1
aI2
aI1
aI0
aI0
aI-2
aa(lp441
g41
aI0
aI0
aI0
aI-2
aI2
aI-1
aI0
aI1
aI-1
aI0
aI0
aI2
aI1
aI-3
aI0
aI-2
aI0
aI-1
aI0
aI0
aI0
aI1
aI0
aI0
aI-1
aI0
aI0
aI-3
aI0
aI0
aI-2
aI-1
aI-1
aI1
aI0
aI0
aI-4
aa(lp442
g43
aI0
aI-2
aI0
aI-2
aI2
aI-1
aI0
aI1
aI-1
aI-1
aI0
aI2
aI-1
aI-1
aI0
aI-2
aI0
aI-1
aI0
aI1
aI-1
aI1
aI0
aI2
aI-1
aI0
aI-1
aI-1
aI0
aI-1
aI-1
aI-1
aI-1
aI1
aI0
aI0
aI-4
aassS'anytablehasmissingentries'
p443
I01
s.(dp0
S'listofmetrics'
p1
(lp2
cMSTreeDataImputationWorkflow
ratioofdiff
p3
acMSTreeDataImputationWorkflow
ratioofmagnitudediff
p4
asS'collecteddata'
p5
(dp6
S'ratioofmagnitudediff'
p7
(dp8
(S'data_for_tables2a'
p9
S'missingentriestablesdata_madeby_rauvfmlbiaroc'
p10
S'tableswith 1 missingentries'
p11
S'Fitchforimputation_imputedtables'
p12
tp13
(lp14
F0.0
aF0.0
as(g9
S'missingentriestablesdata_madeby_rauvfm'
p15
S'tableswith 1 missingentries'
p16
S'onennimputationuniform_imputedtables'
p17
tp18
(lp19
F0.0
aF1.0
as(g9
g10
g11
S'linearregressionendswithcutoff_imputedtables'
p20
tp21
(lp22
F1.0
aF1.0
as(g9
g15
S'tableswith 2 missingentries'
p23
S'linearregressionendswithcutoff_imputedtables'
p24
tp25
(lp26
F0.5
aF1.0
as(g9
g15
g16
S'Fitchforimputation_imputedtables'
p27
tp28
(lp29
F0.0
aF0.0
as(g9
g10
S'tableswith 2 missingentries'
p30
S'linearregressionendswithcutoff_imputedtables'
p31
tp32
(lp33
F0.5
aF1.0
as(g9
g15
g16
S'linearregressionendswithcutoff_imputedtables'
p34
tp35
(lp36
F0.0
aF1.0
as(g9
g10
g30
S'onennimputationuniform_imputedtables'
p37
tp38
(lp39
F0.0
aF0.0
as(g9
g15
g23
S'Fitchforimputation_imputedtables'
p40
tp41
(lp42
F0.0
aF1.0
as(g9
g10
g11
S'onennimputationuniform_imputedtables'
p43
tp44
(lp45
F0.0
aF0.0
as(g9
g15
g23
S'onennimputationuniform_imputedtables'
p46
tp47
(lp48
F0.0
aF1.0
as(g9
g10
g30
S'Fitchforimputation_imputedtables'
p49
tp50
(lp51
F0.0
aF0.0
assS'ratioofdiff'
p52
(dp53
(g9
g10
g11
g12
tp54
(lp55
F0.0
aF0.0
as(g9
g15
g16
g17
tp56
(lp57
F0.0
aF1.0
as(g9
g10
g11
g20
tp58
(lp59
F1.0
aF1.0
as(g9
g15
g23
g24
tp60
(lp61
F0.5
aF1.0
as(g9
g15
g16
g27
tp62
(lp63
F0.0
aF0.0
as(g9
g10
g30
g31
tp64
(lp65
F0.5
aF1.0
as(g9
g15
g16
g34
tp66
(lp67
F0.0
aF1.0
as(g9
g10
g30
g37
tp68
(lp69
F0.0
aF0.0
as(g9
g15
g23
g40
tp70
(lp71
F0.0
aF1.0
as(g9
g10
g11
g43
tp72
(lp73
F0.0
aF0.0
as(g9
g15
g23
g46
tp74
(lp75
F0.0
aF1.0
as(g9
g10
g30
g49
tp76
(lp77
F0.0
aF0.0
asss.